(dp1
S'role'
p2
(dp3
S'type'
p4
S'string'
p5
sS'sortable'
p6
I2
sS'sql'
p7
S'CHAR(512)'
p8
ssS'id'
p9
(dp10
g4
g9
sg6
I1
sg7
S'INTEGER PRIMARY KEY AUTOINCREMENT'
p11
ssS'description'
p12
(dp13
g4
S'text'
p14
sg6
I3
sg7
S'TEXT'
p15
ss.