(dp1
S'output'
p2
S"<type 'exceptions.OSError'> [Errno 2] No such file or directory: '/Users/bmiller/src/eds/applications/eds/source'"
p3
sS'layer'
p4
S'/Users/bmiller/src/eds/applications/eds/controllers/build.py'
p5
sS'code'
p6
S"from sphinx.websupport import WebSupport\nimport json\n\n\ndef builddoc():\n    support = WebSupport(srcdir='/Users/bmiller/src/eds/applications/eds/source',builddir='/Users/bmiller/src/eds/applications/eds/static',docroot='chapter')\n    support.build()\n    return 'Success'\n\n\nresponse._vars=response._caller(builddoc)\n"
p7
sS'snapshot'
p8
(dp9
S'exception'
p10
(dp11
S'__getslice__'
p12
S"<method-wrapper '__getslice__' of exceptions.OSError object>"
p13
sS'__str__'
p14
S"<method-wrapper '__str__' of exceptions.OSError object>"
p15
sS'__reduce__'
p16
S'<built-in method __reduce__ of exceptions.OSError object>'
p17
sS'__dict__'
p18
S'{}'
p19
sS'__sizeof__'
p20
S'<built-in method __sizeof__ of exceptions.OSError object>'
p21
sS'__init__'
p22
S"<method-wrapper '__init__' of exceptions.OSError object>"
p23
sS'__setattr__'
p24
S"<method-wrapper '__setattr__' of exceptions.OSError object>"
p25
sS'__reduce_ex__'
p26
S'<built-in method __reduce_ex__ of exceptions.OSError object>'
p27
sS'__new__'
p28
S'<built-in method __new__ of type object>'
p29
sS'errno'
p30
S'2'
sS'__format__'
p31
S'<built-in method __format__ of exceptions.OSError object>'
p32
sS'__class__'
p33
S"<type 'exceptions.OSError'>"
p34
sS'filename'
p35
S"'/Users/bmiller/src/eds/applications/eds/source'"
p36
sS'__doc__'
p37
S"'OS system call failed.'"
p38
sS'__getitem__'
p39
S"<method-wrapper '__getitem__' of exceptions.OSError object>"
p40
sS'__setstate__'
p41
S'<built-in method __setstate__ of exceptions.OSError object>'
p42
sS'__getattribute__'
p43
S"<method-wrapper '__getattribute__' of exceptions.OSError object>"
p44
sS'args'
p45
S"(2, 'No such file or directory')"
p46
sS'__subclasshook__'
p47
S'<built-in method __subclasshook__ of type object>'
p48
sS'__unicode__'
p49
S'<built-in method __unicode__ of exceptions.OSError object>'
p50
sS'strerror'
p51
S"'No such file or directory'"
p52
sS'__delattr__'
p53
S"<method-wrapper '__delattr__' of exceptions.OSError object>"
p54
sS'__repr__'
p55
S"<method-wrapper '__repr__' of exceptions.OSError object>"
p56
sS'__hash__'
p57
S"<method-wrapper '__hash__' of exceptions.OSError object>"
p58
ssS'evalue'
p59
S"[Errno 2] No such file or directory: '/Users/bmiller/src/eds/applications/eds/source'"
p60
sS'request'
p61
ccopy_reg
_reconstructor
p62
(cgluon.html
BEAUTIFY
p63
c__builtin__
object
p64
NtRp65
(dp66
S'attributes'
p67
(dp68
sS'components'
p69
(lp70
g62
(cgluon.html
TABLE
p71
g64
NtRp72
(dp73
g67
(dp74
S'level'
p75
I5
ssS'parent'
p76
Nsg69
(lp77
g62
(cgluon.html
TR
p78
g64
NtRp79
(dp80
g67
(dp81
sg76
g72
sg69
(lp82
g62
(cgluon.html
TD
p83
g64
NtRp84
(dp85
g67
(dp86
S'_style'
p87
S'font-weight:bold;vertical-align:top'
p88
ssg76
g79
sg69
(lp89
S'ajax'
p90
asbag62
(g83
g64
NtRp91
(dp92
g67
(dp93
S'_valign'
p94
S'top'
p95
ssg76
g79
sg69
(lp96
S':'
asbag62
(g83
g64
NtRp97
(dp98
g67
(dp99
sg76
g79
sg69
(lp100
g62
(g63
g64
NtRp101
(dp102
g67
(dp103
g75
I5
ssg76
g97
sg69
(lp104
S'False'
p105
asbasbasbag62
(g78
g64
NtRp106
(dp107
g67
(dp108
sg76
g72
sg69
(lp109
g62
(g83
g64
NtRp110
(dp111
g67
(dp112
g87
g88
ssg76
g106
sg69
(lp113
S'application'
p114
asbag62
(g83
g64
NtRp115
(dp116
g67
(dp117
g94
g95
ssg76
g106
sg69
(lp118
S':'
asbag62
(g83
g64
NtRp119
(dp120
g67
(dp121
sg76
g106
sg69
(lp122
g62
(g63
g64
NtRp123
(dp124
g67
(dp125
g75
I5
ssg76
g119
sg69
(lp126
S'eds'
p127
asbasbasbag62
(g78
g64
NtRp128
(dp129
g67
(dp130
sg76
g72
sg69
(lp131
g62
(g83
g64
NtRp132
(dp133
g67
(dp134
g87
g88
ssg76
g128
sg69
(lp135
g45
asbag62
(g83
g64
NtRp136
(dp137
g67
(dp138
g94
g95
ssg76
g128
sg69
(lp139
S':'
asbag62
(g83
g64
NtRp140
(dp141
g67
(dp142
sg76
g128
sg69
(lp143
g62
(g63
g64
NtRp144
(dp145
g67
(dp146
g75
I5
ssg76
g140
sg69
(lp147
g62
(g71
g64
NtRp148
(dp149
g67
(dp150
g75
I4
ssg76
Nsg69
(lp151
sbasbasbasbag62
(g78
g64
NtRp152
(dp153
g67
(dp154
sg76
g72
sg69
(lp155
g62
(g83
g64
NtRp156
(dp157
g67
(dp158
g87
g88
ssg76
g152
sg69
(lp159
S'body'
p160
asbag62
(g83
g64
NtRp161
(dp162
g67
(dp163
g94
g95
ssg76
g152
sg69
(lp164
S':'
asbag62
(g83
g64
NtRp165
(dp166
g67
(dp167
sg76
g152
sg69
(lp168
g62
(g63
g64
NtRp169
(dp170
g67
(dp171
g75
I5
ssg76
g165
sg69
(lp172
S'<cStringIO.StringO object at 0x109552ea0>'
p173
asbasbasbag62
(g78
g64
NtRp174
(dp175
g67
(dp176
sg76
g72
sg69
(lp177
g62
(g83
g64
NtRp178
(dp179
g67
(dp180
g87
g88
ssg76
g174
sg69
(lp181
S'client'
p182
asbag62
(g83
g64
NtRp183
(dp184
g67
(dp185
g94
g95
ssg76
g174
sg69
(lp186
S':'
asbag62
(g83
g64
NtRp187
(dp188
g67
(dp189
sg76
g174
sg69
(lp190
g62
(g63
g64
NtRp191
(dp192
g67
(dp193
g75
I5
ssg76
g187
sg69
(lp194
S'127.0.0.1'
p195
asbasbasbag62
(g78
g64
NtRp196
(dp197
g67
(dp198
sg76
g72
sg69
(lp199
g62
(g83
g64
NtRp200
(dp201
g67
(dp202
g87
g88
ssg76
g196
sg69
(lp203
S'controller'
p204
asbag62
(g83
g64
NtRp205
(dp206
g67
(dp207
g94
g95
ssg76
g196
sg69
(lp208
S':'
asbag62
(g83
g64
NtRp209
(dp210
g67
(dp211
sg76
g196
sg69
(lp212
g62
(g63
g64
NtRp213
(dp214
g67
(dp215
g75
I5
ssg76
g209
sg69
(lp216
S'build'
p217
asbasbasbag62
(g78
g64
NtRp218
(dp219
g67
(dp220
sg76
g72
sg69
(lp221
g62
(g83
g64
NtRp222
(dp223
g67
(dp224
g87
g88
ssg76
g218
sg69
(lp225
S'cookies'
p226
asbag62
(g83
g64
NtRp227
(dp228
g67
(dp229
g94
g95
ssg76
g218
sg69
(lp230
S':'
asbag62
(g83
g64
NtRp231
(dp232
g67
(dp233
sg76
g218
sg69
(lp234
g62
(g63
g64
NtRp235
(dp236
g67
(dp237
g75
I5
ssg76
g231
sg69
(lp238
g62
(g71
g64
NtRp239
(dp240
g67
(dp241
g75
I4
ssg76
Nsg69
(lp242
g62
(g78
g64
NtRp243
(dp244
g67
(dp245
sg76
g239
sg69
(lp246
g62
(g83
g64
NtRp247
(dp248
g67
(dp249
g87
g88
ssg76
g243
sg69
(lp250
S'session_id_admin'
p251
asbag62
(g83
g64
NtRp252
(dp253
g67
(dp254
g94
g95
ssg76
g243
sg69
(lp255
S':'
asbag62
(g83
g64
NtRp256
(dp257
g67
(dp258
sg76
g243
sg69
(lp259
g62
(g63
g64
NtRp260
(dp261
g67
(dp262
g75
I4
ssg76
g256
sg69
(lp263
g62
(g71
g64
NtRp264
(dp265
g67
(dp266
g75
I3
ssg76
Nsg69
(lp267
g62
(g78
g64
NtRp268
(dp269
g67
(dp270
sg76
g264
sg69
(lp271
g62
(g83
g64
NtRp272
(dp273
g67
(dp274
g87
g88
ssg76
g268
sg69
(lp275
S'comment'
p276
asbag62
(g83
g64
NtRp277
(dp278
g67
(dp279
g94
g95
ssg76
g268
sg69
(lp280
S':'
asbag62
(g83
g64
NtRp281
(dp282
g67
(dp283
sg76
g268
sg69
(lp284
g62
(g63
g64
NtRp285
(dp286
g67
(dp287
g75
I3
ssg76
g281
sg69
(lp288
S''
asbasbasbag62
(g78
g64
NtRp289
(dp290
g67
(dp291
sg76
g264
sg69
(lp292
g62
(g83
g64
NtRp293
(dp294
g67
(dp295
g87
g88
ssg76
g289
sg69
(lp296
S'domain'
p297
asbag62
(g83
g64
NtRp298
(dp299
g67
(dp300
g94
g95
ssg76
g289
sg69
(lp301
S':'
asbag62
(g83
g64
NtRp302
(dp303
g67
(dp304
sg76
g289
sg69
(lp305
g62
(g63
g64
NtRp306
(dp307
g67
(dp308
g75
I3
ssg76
g302
sg69
(lp309
S''
asbasbasbag62
(g78
g64
NtRp310
(dp311
g67
(dp312
sg76
g264
sg69
(lp313
g62
(g83
g64
NtRp314
(dp315
g67
(dp316
g87
g88
ssg76
g310
sg69
(lp317
S'expires'
p318
asbag62
(g83
g64
NtRp319
(dp320
g67
(dp321
g94
g95
ssg76
g310
sg69
(lp322
S':'
asbag62
(g83
g64
NtRp323
(dp324
g67
(dp325
sg76
g310
sg69
(lp326
g62
(g63
g64
NtRp327
(dp328
g67
(dp329
g75
I3
ssg76
g323
sg69
(lp330
S''
asbasbasbag62
(g78
g64
NtRp331
(dp332
g67
(dp333
sg76
g264
sg69
(lp334
g62
(g83
g64
NtRp335
(dp336
g67
(dp337
g87
g88
ssg76
g331
sg69
(lp338
S'httponly'
p339
asbag62
(g83
g64
NtRp340
(dp341
g67
(dp342
g94
g95
ssg76
g331
sg69
(lp343
S':'
asbag62
(g83
g64
NtRp344
(dp345
g67
(dp346
sg76
g331
sg69
(lp347
g62
(g63
g64
NtRp348
(dp349
g67
(dp350
g75
I3
ssg76
g344
sg69
(lp351
S''
asbasbasbag62
(g78
g64
NtRp352
(dp353
g67
(dp354
sg76
g264
sg69
(lp355
g62
(g83
g64
NtRp356
(dp357
g67
(dp358
g87
g88
ssg76
g352
sg69
(lp359
S'max-age'
p360
asbag62
(g83
g64
NtRp361
(dp362
g67
(dp363
g94
g95
ssg76
g352
sg69
(lp364
S':'
asbag62
(g83
g64
NtRp365
(dp366
g67
(dp367
sg76
g352
sg69
(lp368
g62
(g63
g64
NtRp369
(dp370
g67
(dp371
g75
I3
ssg76
g365
sg69
(lp372
S''
asbasbasbag62
(g78
g64
NtRp373
(dp374
g67
(dp375
sg76
g264
sg69
(lp376
g62
(g83
g64
NtRp377
(dp378
g67
(dp379
g87
g88
ssg76
g373
sg69
(lp380
S'path'
p381
asbag62
(g83
g64
NtRp382
(dp383
g67
(dp384
g94
g95
ssg76
g373
sg69
(lp385
S':'
asbag62
(g83
g64
NtRp386
(dp387
g67
(dp388
sg76
g373
sg69
(lp389
g62
(g63
g64
NtRp390
(dp391
g67
(dp392
g75
I3
ssg76
g386
sg69
(lp393
S''
asbasbasbag62
(g78
g64
NtRp394
(dp395
g67
(dp396
sg76
g264
sg69
(lp397
g62
(g83
g64
NtRp398
(dp399
g67
(dp400
g87
g88
ssg76
g394
sg69
(lp401
S'secure'
p402
asbag62
(g83
g64
NtRp403
(dp404
g67
(dp405
g94
g95
ssg76
g394
sg69
(lp406
S':'
asbag62
(g83
g64
NtRp407
(dp408
g67
(dp409
sg76
g394
sg69
(lp410
g62
(g63
g64
NtRp411
(dp412
g67
(dp413
g75
I3
ssg76
g407
sg69
(lp414
S''
asbasbasbag62
(g78
g64
NtRp415
(dp416
g67
(dp417
sg76
g264
sg69
(lp418
g62
(g83
g64
NtRp419
(dp420
g67
(dp421
g87
g88
ssg76
g415
sg69
(lp422
S'version'
p423
asbag62
(g83
g64
NtRp424
(dp425
g67
(dp426
g94
g95
ssg76
g415
sg69
(lp427
S':'
asbag62
(g83
g64
NtRp428
(dp429
g67
(dp430
sg76
g415
sg69
(lp431
g62
(g63
g64
NtRp432
(dp433
g67
(dp434
g75
I3
ssg76
g428
sg69
(lp435
S''
asbasbasbasbasbasbasbag62
(g78
g64
NtRp436
(dp437
g67
(dp438
sg76
g239
sg69
(lp439
g62
(g83
g64
NtRp440
(dp441
g67
(dp442
g87
g88
ssg76
g436
sg69
(lp443
S'session_id_eds'
p444
asbag62
(g83
g64
NtRp445
(dp446
g67
(dp447
g94
g95
ssg76
g436
sg69
(lp448
S':'
asbag62
(g83
g64
NtRp449
(dp450
g67
(dp451
sg76
g436
sg69
(lp452
g62
(g63
g64
NtRp453
(dp454
g67
(dp455
g75
I4
ssg76
g449
sg69
(lp456
g62
(g71
g64
NtRp457
(dp458
g67
(dp459
g75
I3
ssg76
Nsg69
(lp460
g62
(g78
g64
NtRp461
(dp462
g67
(dp463
sg76
g457
sg69
(lp464
g62
(g83
g64
NtRp465
(dp466
g67
(dp467
g87
g88
ssg76
g461
sg69
(lp468
g276
asbag62
(g83
g64
NtRp469
(dp470
g67
(dp471
g94
g95
ssg76
g461
sg69
(lp472
S':'
asbag62
(g83
g64
NtRp473
(dp474
g67
(dp475
sg76
g461
sg69
(lp476
g62
(g63
g64
NtRp477
(dp478
g67
(dp479
g75
I3
ssg76
g473
sg69
(lp480
S''
asbasbasbag62
(g78
g64
NtRp481
(dp482
g67
(dp483
sg76
g457
sg69
(lp484
g62
(g83
g64
NtRp485
(dp486
g67
(dp487
g87
g88
ssg76
g481
sg69
(lp488
g297
asbag62
(g83
g64
NtRp489
(dp490
g67
(dp491
g94
g95
ssg76
g481
sg69
(lp492
S':'
asbag62
(g83
g64
NtRp493
(dp494
g67
(dp495
sg76
g481
sg69
(lp496
g62
(g63
g64
NtRp497
(dp498
g67
(dp499
g75
I3
ssg76
g493
sg69
(lp500
S''
asbasbasbag62
(g78
g64
NtRp501
(dp502
g67
(dp503
sg76
g457
sg69
(lp504
g62
(g83
g64
NtRp505
(dp506
g67
(dp507
g87
g88
ssg76
g501
sg69
(lp508
g318
asbag62
(g83
g64
NtRp509
(dp510
g67
(dp511
g94
g95
ssg76
g501
sg69
(lp512
S':'
asbag62
(g83
g64
NtRp513
(dp514
g67
(dp515
sg76
g501
sg69
(lp516
g62
(g63
g64
NtRp517
(dp518
g67
(dp519
g75
I3
ssg76
g513
sg69
(lp520
S''
asbasbasbag62
(g78
g64
NtRp521
(dp522
g67
(dp523
sg76
g457
sg69
(lp524
g62
(g83
g64
NtRp525
(dp526
g67
(dp527
g87
g88
ssg76
g521
sg69
(lp528
g339
asbag62
(g83
g64
NtRp529
(dp530
g67
(dp531
g94
g95
ssg76
g521
sg69
(lp532
S':'
asbag62
(g83
g64
NtRp533
(dp534
g67
(dp535
sg76
g521
sg69
(lp536
g62
(g63
g64
NtRp537
(dp538
g67
(dp539
g75
I3
ssg76
g533
sg69
(lp540
S''
asbasbasbag62
(g78
g64
NtRp541
(dp542
g67
(dp543
sg76
g457
sg69
(lp544
g62
(g83
g64
NtRp545
(dp546
g67
(dp547
g87
g88
ssg76
g541
sg69
(lp548
g360
asbag62
(g83
g64
NtRp549
(dp550
g67
(dp551
g94
g95
ssg76
g541
sg69
(lp552
S':'
asbag62
(g83
g64
NtRp553
(dp554
g67
(dp555
sg76
g541
sg69
(lp556
g62
(g63
g64
NtRp557
(dp558
g67
(dp559
g75
I3
ssg76
g553
sg69
(lp560
S''
asbasbasbag62
(g78
g64
NtRp561
(dp562
g67
(dp563
sg76
g457
sg69
(lp564
g62
(g83
g64
NtRp565
(dp566
g67
(dp567
g87
g88
ssg76
g561
sg69
(lp568
g381
asbag62
(g83
g64
NtRp569
(dp570
g67
(dp571
g94
g95
ssg76
g561
sg69
(lp572
S':'
asbag62
(g83
g64
NtRp573
(dp574
g67
(dp575
sg76
g561
sg69
(lp576
g62
(g63
g64
NtRp577
(dp578
g67
(dp579
g75
I3
ssg76
g573
sg69
(lp580
S''
asbasbasbag62
(g78
g64
NtRp581
(dp582
g67
(dp583
sg76
g457
sg69
(lp584
g62
(g83
g64
NtRp585
(dp586
g67
(dp587
g87
g88
ssg76
g581
sg69
(lp588
g402
asbag62
(g83
g64
NtRp589
(dp590
g67
(dp591
g94
g95
ssg76
g581
sg69
(lp592
S':'
asbag62
(g83
g64
NtRp593
(dp594
g67
(dp595
sg76
g581
sg69
(lp596
g62
(g63
g64
NtRp597
(dp598
g67
(dp599
g75
I3
ssg76
g593
sg69
(lp600
S''
asbasbasbag62
(g78
g64
NtRp601
(dp602
g67
(dp603
sg76
g457
sg69
(lp604
g62
(g83
g64
NtRp605
(dp606
g67
(dp607
g87
g88
ssg76
g601
sg69
(lp608
g423
asbag62
(g83
g64
NtRp609
(dp610
g67
(dp611
g94
g95
ssg76
g601
sg69
(lp612
S':'
asbag62
(g83
g64
NtRp613
(dp614
g67
(dp615
sg76
g601
sg69
(lp616
g62
(g63
g64
NtRp617
(dp618
g67
(dp619
g75
I3
ssg76
g613
sg69
(lp620
S''
asbasbasbasbasbasbasbag62
(g78
g64
NtRp621
(dp622
g67
(dp623
sg76
g239
sg69
(lp624
g62
(g83
g64
NtRp625
(dp626
g67
(dp627
g87
g88
ssg76
g621
sg69
(lp628
S'session_id_testeds'
p629
asbag62
(g83
g64
NtRp630
(dp631
g67
(dp632
g94
g95
ssg76
g621
sg69
(lp633
S':'
asbag62
(g83
g64
NtRp634
(dp635
g67
(dp636
sg76
g621
sg69
(lp637
g62
(g63
g64
NtRp638
(dp639
g67
(dp640
g75
I4
ssg76
g634
sg69
(lp641
g62
(g71
g64
NtRp642
(dp643
g67
(dp644
g75
I3
ssg76
Nsg69
(lp645
g62
(g78
g64
NtRp646
(dp647
g67
(dp648
sg76
g642
sg69
(lp649
g62
(g83
g64
NtRp650
(dp651
g67
(dp652
g87
g88
ssg76
g646
sg69
(lp653
g276
asbag62
(g83
g64
NtRp654
(dp655
g67
(dp656
g94
g95
ssg76
g646
sg69
(lp657
S':'
asbag62
(g83
g64
NtRp658
(dp659
g67
(dp660
sg76
g646
sg69
(lp661
g62
(g63
g64
NtRp662
(dp663
g67
(dp664
g75
I3
ssg76
g658
sg69
(lp665
S''
asbasbasbag62
(g78
g64
NtRp666
(dp667
g67
(dp668
sg76
g642
sg69
(lp669
g62
(g83
g64
NtRp670
(dp671
g67
(dp672
g87
g88
ssg76
g666
sg69
(lp673
g297
asbag62
(g83
g64
NtRp674
(dp675
g67
(dp676
g94
g95
ssg76
g666
sg69
(lp677
S':'
asbag62
(g83
g64
NtRp678
(dp679
g67
(dp680
sg76
g666
sg69
(lp681
g62
(g63
g64
NtRp682
(dp683
g67
(dp684
g75
I3
ssg76
g678
sg69
(lp685
S''
asbasbasbag62
(g78
g64
NtRp686
(dp687
g67
(dp688
sg76
g642
sg69
(lp689
g62
(g83
g64
NtRp690
(dp691
g67
(dp692
g87
g88
ssg76
g686
sg69
(lp693
g318
asbag62
(g83
g64
NtRp694
(dp695
g67
(dp696
g94
g95
ssg76
g686
sg69
(lp697
S':'
asbag62
(g83
g64
NtRp698
(dp699
g67
(dp700
sg76
g686
sg69
(lp701
g62
(g63
g64
NtRp702
(dp703
g67
(dp704
g75
I3
ssg76
g698
sg69
(lp705
S''
asbasbasbag62
(g78
g64
NtRp706
(dp707
g67
(dp708
sg76
g642
sg69
(lp709
g62
(g83
g64
NtRp710
(dp711
g67
(dp712
g87
g88
ssg76
g706
sg69
(lp713
g339
asbag62
(g83
g64
NtRp714
(dp715
g67
(dp716
g94
g95
ssg76
g706
sg69
(lp717
S':'
asbag62
(g83
g64
NtRp718
(dp719
g67
(dp720
sg76
g706
sg69
(lp721
g62
(g63
g64
NtRp722
(dp723
g67
(dp724
g75
I3
ssg76
g718
sg69
(lp725
S''
asbasbasbag62
(g78
g64
NtRp726
(dp727
g67
(dp728
sg76
g642
sg69
(lp729
g62
(g83
g64
NtRp730
(dp731
g67
(dp732
g87
g88
ssg76
g726
sg69
(lp733
g360
asbag62
(g83
g64
NtRp734
(dp735
g67
(dp736
g94
g95
ssg76
g726
sg69
(lp737
S':'
asbag62
(g83
g64
NtRp738
(dp739
g67
(dp740
sg76
g726
sg69
(lp741
g62
(g63
g64
NtRp742
(dp743
g67
(dp744
g75
I3
ssg76
g738
sg69
(lp745
S''
asbasbasbag62
(g78
g64
NtRp746
(dp747
g67
(dp748
sg76
g642
sg69
(lp749
g62
(g83
g64
NtRp750
(dp751
g67
(dp752
g87
g88
ssg76
g746
sg69
(lp753
g381
asbag62
(g83
g64
NtRp754
(dp755
g67
(dp756
g94
g95
ssg76
g746
sg69
(lp757
S':'
asbag62
(g83
g64
NtRp758
(dp759
g67
(dp760
sg76
g746
sg69
(lp761
g62
(g63
g64
NtRp762
(dp763
g67
(dp764
g75
I3
ssg76
g758
sg69
(lp765
S''
asbasbasbag62
(g78
g64
NtRp766
(dp767
g67
(dp768
sg76
g642
sg69
(lp769
g62
(g83
g64
NtRp770
(dp771
g67
(dp772
g87
g88
ssg76
g766
sg69
(lp773
g402
asbag62
(g83
g64
NtRp774
(dp775
g67
(dp776
g94
g95
ssg76
g766
sg69
(lp777
S':'
asbag62
(g83
g64
NtRp778
(dp779
g67
(dp780
sg76
g766
sg69
(lp781
g62
(g63
g64
NtRp782
(dp783
g67
(dp784
g75
I3
ssg76
g778
sg69
(lp785
S''
asbasbasbag62
(g78
g64
NtRp786
(dp787
g67
(dp788
sg76
g642
sg69
(lp789
g62
(g83
g64
NtRp790
(dp791
g67
(dp792
g87
g88
ssg76
g786
sg69
(lp793
g423
asbag62
(g83
g64
NtRp794
(dp795
g67
(dp796
g94
g95
ssg76
g786
sg69
(lp797
S':'
asbag62
(g83
g64
NtRp798
(dp799
g67
(dp800
sg76
g786
sg69
(lp801
g62
(g63
g64
NtRp802
(dp803
g67
(dp804
g75
I3
ssg76
g798
sg69
(lp805
S''
asbasbasbasbasbasbasbag62
(g78
g64
NtRp806
(dp807
g67
(dp808
sg76
g239
sg69
(lp809
g62
(g83
g64
NtRp810
(dp811
g67
(dp812
g87
g88
ssg76
g806
sg69
(lp813
S'session_id_thing'
p814
asbag62
(g83
g64
NtRp815
(dp816
g67
(dp817
g94
g95
ssg76
g806
sg69
(lp818
S':'
asbag62
(g83
g64
NtRp819
(dp820
g67
(dp821
sg76
g806
sg69
(lp822
g62
(g63
g64
NtRp823
(dp824
g67
(dp825
g75
I4
ssg76
g819
sg69
(lp826
g62
(g71
g64
NtRp827
(dp828
g67
(dp829
g75
I3
ssg76
Nsg69
(lp830
g62
(g78
g64
NtRp831
(dp832
g67
(dp833
sg76
g827
sg69
(lp834
g62
(g83
g64
NtRp835
(dp836
g67
(dp837
g87
g88
ssg76
g831
sg69
(lp838
g276
asbag62
(g83
g64
NtRp839
(dp840
g67
(dp841
g94
g95
ssg76
g831
sg69
(lp842
S':'
asbag62
(g83
g64
NtRp843
(dp844
g67
(dp845
sg76
g831
sg69
(lp846
g62
(g63
g64
NtRp847
(dp848
g67
(dp849
g75
I3
ssg76
g843
sg69
(lp850
S''
asbasbasbag62
(g78
g64
NtRp851
(dp852
g67
(dp853
sg76
g827
sg69
(lp854
g62
(g83
g64
NtRp855
(dp856
g67
(dp857
g87
g88
ssg76
g851
sg69
(lp858
g297
asbag62
(g83
g64
NtRp859
(dp860
g67
(dp861
g94
g95
ssg76
g851
sg69
(lp862
S':'
asbag62
(g83
g64
NtRp863
(dp864
g67
(dp865
sg76
g851
sg69
(lp866
g62
(g63
g64
NtRp867
(dp868
g67
(dp869
g75
I3
ssg76
g863
sg69
(lp870
S''
asbasbasbag62
(g78
g64
NtRp871
(dp872
g67
(dp873
sg76
g827
sg69
(lp874
g62
(g83
g64
NtRp875
(dp876
g67
(dp877
g87
g88
ssg76
g871
sg69
(lp878
g318
asbag62
(g83
g64
NtRp879
(dp880
g67
(dp881
g94
g95
ssg76
g871
sg69
(lp882
S':'
asbag62
(g83
g64
NtRp883
(dp884
g67
(dp885
sg76
g871
sg69
(lp886
g62
(g63
g64
NtRp887
(dp888
g67
(dp889
g75
I3
ssg76
g883
sg69
(lp890
S''
asbasbasbag62
(g78
g64
NtRp891
(dp892
g67
(dp893
sg76
g827
sg69
(lp894
g62
(g83
g64
NtRp895
(dp896
g67
(dp897
g87
g88
ssg76
g891
sg69
(lp898
g339
asbag62
(g83
g64
NtRp899
(dp900
g67
(dp901
g94
g95
ssg76
g891
sg69
(lp902
S':'
asbag62
(g83
g64
NtRp903
(dp904
g67
(dp905
sg76
g891
sg69
(lp906
g62
(g63
g64
NtRp907
(dp908
g67
(dp909
g75
I3
ssg76
g903
sg69
(lp910
S''
asbasbasbag62
(g78
g64
NtRp911
(dp912
g67
(dp913
sg76
g827
sg69
(lp914
g62
(g83
g64
NtRp915
(dp916
g67
(dp917
g87
g88
ssg76
g911
sg69
(lp918
g360
asbag62
(g83
g64
NtRp919
(dp920
g67
(dp921
g94
g95
ssg76
g911
sg69
(lp922
S':'
asbag62
(g83
g64
NtRp923
(dp924
g67
(dp925
sg76
g911
sg69
(lp926
g62
(g63
g64
NtRp927
(dp928
g67
(dp929
g75
I3
ssg76
g923
sg69
(lp930
S''
asbasbasbag62
(g78
g64
NtRp931
(dp932
g67
(dp933
sg76
g827
sg69
(lp934
g62
(g83
g64
NtRp935
(dp936
g67
(dp937
g87
g88
ssg76
g931
sg69
(lp938
g381
asbag62
(g83
g64
NtRp939
(dp940
g67
(dp941
g94
g95
ssg76
g931
sg69
(lp942
S':'
asbag62
(g83
g64
NtRp943
(dp944
g67
(dp945
sg76
g931
sg69
(lp946
g62
(g63
g64
NtRp947
(dp948
g67
(dp949
g75
I3
ssg76
g943
sg69
(lp950
S''
asbasbasbag62
(g78
g64
NtRp951
(dp952
g67
(dp953
sg76
g827
sg69
(lp954
g62
(g83
g64
NtRp955
(dp956
g67
(dp957
g87
g88
ssg76
g951
sg69
(lp958
g402
asbag62
(g83
g64
NtRp959
(dp960
g67
(dp961
g94
g95
ssg76
g951
sg69
(lp962
S':'
asbag62
(g83
g64
NtRp963
(dp964
g67
(dp965
sg76
g951
sg69
(lp966
g62
(g63
g64
NtRp967
(dp968
g67
(dp969
g75
I3
ssg76
g963
sg69
(lp970
S''
asbasbasbag62
(g78
g64
NtRp971
(dp972
g67
(dp973
sg76
g827
sg69
(lp974
g62
(g83
g64
NtRp975
(dp976
g67
(dp977
g87
g88
ssg76
g971
sg69
(lp978
g423
asbag62
(g83
g64
NtRp979
(dp980
g67
(dp981
g94
g95
ssg76
g971
sg69
(lp982
S':'
asbag62
(g83
g64
NtRp983
(dp984
g67
(dp985
sg76
g971
sg69
(lp986
g62
(g63
g64
NtRp987
(dp988
g67
(dp989
g75
I3
ssg76
g983
sg69
(lp990
S''
asbasbasbasbasbasbasbag62
(g78
g64
NtRp991
(dp992
g67
(dp993
sg76
g239
sg69
(lp994
g62
(g83
g64
NtRp995
(dp996
g67
(dp997
g87
g88
ssg76
g991
sg69
(lp998
S'session_id_welcome'
p999
asbag62
(g83
g64
NtRp1000
(dp1001
g67
(dp1002
g94
g95
ssg76
g991
sg69
(lp1003
S':'
asbag62
(g83
g64
NtRp1004
(dp1005
g67
(dp1006
sg76
g991
sg69
(lp1007
g62
(g63
g64
NtRp1008
(dp1009
g67
(dp1010
g75
I4
ssg76
g1004
sg69
(lp1011
g62
(g71
g64
NtRp1012
(dp1013
g67
(dp1014
g75
I3
ssg76
Nsg69
(lp1015
g62
(g78
g64
NtRp1016
(dp1017
g67
(dp1018
sg76
g1012
sg69
(lp1019
g62
(g83
g64
NtRp1020
(dp1021
g67
(dp1022
g87
g88
ssg76
g1016
sg69
(lp1023
g276
asbag62
(g83
g64
NtRp1024
(dp1025
g67
(dp1026
g94
g95
ssg76
g1016
sg69
(lp1027
S':'
asbag62
(g83
g64
NtRp1028
(dp1029
g67
(dp1030
sg76
g1016
sg69
(lp1031
g62
(g63
g64
NtRp1032
(dp1033
g67
(dp1034
g75
I3
ssg76
g1028
sg69
(lp1035
S''
asbasbasbag62
(g78
g64
NtRp1036
(dp1037
g67
(dp1038
sg76
g1012
sg69
(lp1039
g62
(g83
g64
NtRp1040
(dp1041
g67
(dp1042
g87
g88
ssg76
g1036
sg69
(lp1043
g297
asbag62
(g83
g64
NtRp1044
(dp1045
g67
(dp1046
g94
g95
ssg76
g1036
sg69
(lp1047
S':'
asbag62
(g83
g64
NtRp1048
(dp1049
g67
(dp1050
sg76
g1036
sg69
(lp1051
g62
(g63
g64
NtRp1052
(dp1053
g67
(dp1054
g75
I3
ssg76
g1048
sg69
(lp1055
S''
asbasbasbag62
(g78
g64
NtRp1056
(dp1057
g67
(dp1058
sg76
g1012
sg69
(lp1059
g62
(g83
g64
NtRp1060
(dp1061
g67
(dp1062
g87
g88
ssg76
g1056
sg69
(lp1063
g318
asbag62
(g83
g64
NtRp1064
(dp1065
g67
(dp1066
g94
g95
ssg76
g1056
sg69
(lp1067
S':'
asbag62
(g83
g64
NtRp1068
(dp1069
g67
(dp1070
sg76
g1056
sg69
(lp1071
g62
(g63
g64
NtRp1072
(dp1073
g67
(dp1074
g75
I3
ssg76
g1068
sg69
(lp1075
S''
asbasbasbag62
(g78
g64
NtRp1076
(dp1077
g67
(dp1078
sg76
g1012
sg69
(lp1079
g62
(g83
g64
NtRp1080
(dp1081
g67
(dp1082
g87
g88
ssg76
g1076
sg69
(lp1083
g339
asbag62
(g83
g64
NtRp1084
(dp1085
g67
(dp1086
g94
g95
ssg76
g1076
sg69
(lp1087
S':'
asbag62
(g83
g64
NtRp1088
(dp1089
g67
(dp1090
sg76
g1076
sg69
(lp1091
g62
(g63
g64
NtRp1092
(dp1093
g67
(dp1094
g75
I3
ssg76
g1088
sg69
(lp1095
S''
asbasbasbag62
(g78
g64
NtRp1096
(dp1097
g67
(dp1098
sg76
g1012
sg69
(lp1099
g62
(g83
g64
NtRp1100
(dp1101
g67
(dp1102
g87
g88
ssg76
g1096
sg69
(lp1103
g360
asbag62
(g83
g64
NtRp1104
(dp1105
g67
(dp1106
g94
g95
ssg76
g1096
sg69
(lp1107
S':'
asbag62
(g83
g64
NtRp1108
(dp1109
g67
(dp1110
sg76
g1096
sg69
(lp1111
g62
(g63
g64
NtRp1112
(dp1113
g67
(dp1114
g75
I3
ssg76
g1108
sg69
(lp1115
S''
asbasbasbag62
(g78
g64
NtRp1116
(dp1117
g67
(dp1118
sg76
g1012
sg69
(lp1119
g62
(g83
g64
NtRp1120
(dp1121
g67
(dp1122
g87
g88
ssg76
g1116
sg69
(lp1123
g381
asbag62
(g83
g64
NtRp1124
(dp1125
g67
(dp1126
g94
g95
ssg76
g1116
sg69
(lp1127
S':'
asbag62
(g83
g64
NtRp1128
(dp1129
g67
(dp1130
sg76
g1116
sg69
(lp1131
g62
(g63
g64
NtRp1132
(dp1133
g67
(dp1134
g75
I3
ssg76
g1128
sg69
(lp1135
S''
asbasbasbag62
(g78
g64
NtRp1136
(dp1137
g67
(dp1138
sg76
g1012
sg69
(lp1139
g62
(g83
g64
NtRp1140
(dp1141
g67
(dp1142
g87
g88
ssg76
g1136
sg69
(lp1143
g402
asbag62
(g83
g64
NtRp1144
(dp1145
g67
(dp1146
g94
g95
ssg76
g1136
sg69
(lp1147
S':'
asbag62
(g83
g64
NtRp1148
(dp1149
g67
(dp1150
sg76
g1136
sg69
(lp1151
g62
(g63
g64
NtRp1152
(dp1153
g67
(dp1154
g75
I3
ssg76
g1148
sg69
(lp1155
S''
asbasbasbag62
(g78
g64
NtRp1156
(dp1157
g67
(dp1158
sg76
g1012
sg69
(lp1159
g62
(g83
g64
NtRp1160
(dp1161
g67
(dp1162
g87
g88
ssg76
g1156
sg69
(lp1163
g423
asbag62
(g83
g64
NtRp1164
(dp1165
g67
(dp1166
g94
g95
ssg76
g1156
sg69
(lp1167
S':'
asbag62
(g83
g64
NtRp1168
(dp1169
g67
(dp1170
sg76
g1156
sg69
(lp1171
g62
(g63
g64
NtRp1172
(dp1173
g67
(dp1174
g75
I3
ssg76
g1168
sg69
(lp1175
S''
asbasbasbasbasbasbasbasbasbasbasbag62
(g78
g64
NtRp1176
(dp1177
g67
(dp1178
sg76
g72
sg69
(lp1179
g62
(g83
g64
NtRp1180
(dp1181
g67
(dp1182
g87
g88
ssg76
g1176
sg69
(lp1183
S'env'
p1184
asbag62
(g83
g64
NtRp1185
(dp1186
g67
(dp1187
g94
g95
ssg76
g1176
sg69
(lp1188
S':'
asbag62
(g83
g64
NtRp1189
(dp1190
g67
(dp1191
sg76
g1176
sg69
(lp1192
g62
(g63
g64
NtRp1193
(dp1194
g67
(dp1195
g75
I5
ssg76
g1189
sg69
(lp1196
g62
(g71
g64
NtRp1197
(dp1198
g67
(dp1199
g75
I4
ssg76
Nsg69
(lp1200
g62
(g78
g64
NtRp1201
(dp1202
g67
(dp1203
sg76
g1197
sg69
(lp1204
g62
(g83
g64
NtRp1205
(dp1206
g67
(dp1207
g87
g88
ssg76
g1201
sg69
(lp1208
S'app_folders'
p1209
asbag62
(g83
g64
NtRp1210
(dp1211
g67
(dp1212
g94
g95
ssg76
g1201
sg69
(lp1213
S':'
asbag62
(g83
g64
NtRp1214
(dp1215
g67
(dp1216
sg76
g1201
sg69
(lp1217
g62
(g63
g64
NtRp1218
(dp1219
g67
(dp1220
g75
I4
ssg76
g1214
sg69
(lp1221
S"set(['/Users/bmiller/src/eds/applications/eds/', '/Users/bmiller/src/eds/applications/admin/', '/Users/bmiller/src/eds/applications/welcome/'])"
p1222
asbasbasbag62
(g78
g64
NtRp1223
(dp1224
g67
(dp1225
sg76
g1197
sg69
(lp1226
g62
(g83
g64
NtRp1227
(dp1228
g67
(dp1229
g87
g88
ssg76
g1223
sg69
(lp1230
S'applications_parent'
p1231
asbag62
(g83
g64
NtRp1232
(dp1233
g67
(dp1234
g94
g95
ssg76
g1223
sg69
(lp1235
S':'
asbag62
(g83
g64
NtRp1236
(dp1237
g67
(dp1238
sg76
g1223
sg69
(lp1239
g62
(g63
g64
NtRp1240
(dp1241
g67
(dp1242
g75
I4
ssg76
g1236
sg69
(lp1243
S'/Users/bmiller/src/eds'
p1244
asbasbasbag62
(g78
g64
NtRp1245
(dp1246
g67
(dp1247
sg76
g1197
sg69
(lp1248
g62
(g83
g64
NtRp1249
(dp1250
g67
(dp1251
g87
g88
ssg76
g1245
sg69
(lp1252
S'cmd_args'
p1253
asbag62
(g83
g64
NtRp1254
(dp1255
g67
(dp1256
g94
g95
ssg76
g1245
sg69
(lp1257
S':'
asbag62
(g83
g64
NtRp1258
(dp1259
g67
(dp1260
sg76
g1245
sg69
(lp1261
g62
(g63
g64
NtRp1262
(dp1263
g67
(dp1264
g75
I4
ssg76
g1258
sg69
(lp1265
g62
(g71
g64
NtRp1266
(dp1267
g67
(dp1268
g75
I3
ssg76
Nsg69
(lp1269
sbasbasbasbag62
(g78
g64
NtRp1270
(dp1271
g67
(dp1272
sg76
g1197
sg69
(lp1273
g62
(g83
g64
NtRp1274
(dp1275
g67
(dp1276
g87
g88
ssg76
g1270
sg69
(lp1277
S'cmd_options'
p1278
asbag62
(g83
g64
NtRp1279
(dp1280
g67
(dp1281
g94
g95
ssg76
g1270
sg69
(lp1282
S':'
asbag62
(g83
g64
NtRp1283
(dp1284
g67
(dp1285
sg76
g1270
sg69
(lp1286
g62
(g63
g64
NtRp1287
(dp1288
g67
(dp1289
g75
I4
ssg76
g1283
sg69
(lp1290
S"<Values at 0x104846f80: {'verbose': False, 'ip': '127.0.0.1', 'shutdown_timeout': 5, 'taskbar': False, 'nocron': False, 'pid_filename': 'httpserver.pid', 'maxthreads': None, 'softcron': False, 'server_name': 'chronos.local', 'bpython': False, 'nogui': False, 'port': 8000, 'extcron': False, 'debuglevel': 30, 'test': None, 'folder': '/Users/bmiller/src/eds', 'config': '', 'import_models': False, 'winservice': '', 'shell': None, 'run': '', 'log_filename': 'httpserver.log', 'args': [''], 'socket_timeout': 1, 'ssl_ca_certificate': None, 'scheduler': None, 'profiler_filename': None, 'ssl_private_key': '', 'password': '<ask>', 'request_queue_size': 5, 'ssl_certificate': '', 'cronjob': False, 'numthreads': None, 'quiet': False, 'interfaces': None, 'minthreads': None, 'timeout': 10, 'plain': False, 'nobanner': False}>"
p1291
asbasbasbag62
(g78
g64
NtRp1292
(dp1293
g67
(dp1294
sg76
g1197
sg69
(lp1295
g62
(g83
g64
NtRp1296
(dp1297
g67
(dp1298
g87
g88
ssg76
g1292
sg69
(lp1299
S'db_sessions'
p1300
asbag62
(g83
g64
NtRp1301
(dp1302
g67
(dp1303
g94
g95
ssg76
g1292
sg69
(lp1304
S':'
asbag62
(g83
g64
NtRp1305
(dp1306
g67
(dp1307
sg76
g1292
sg69
(lp1308
g62
(g63
g64
NtRp1309
(dp1310
g67
(dp1311
g75
I4
ssg76
g1305
sg69
(lp1312
S'set([])'
p1313
asbasbasbag62
(g78
g64
NtRp1314
(dp1315
g67
(dp1316
sg76
g1197
sg69
(lp1317
g62
(g83
g64
NtRp1318
(dp1319
g67
(dp1320
g87
g88
ssg76
g1314
sg69
(lp1321
S'debugging'
p1322
asbag62
(g83
g64
NtRp1323
(dp1324
g67
(dp1325
g94
g95
ssg76
g1314
sg69
(lp1326
S':'
asbag62
(g83
g64
NtRp1327
(dp1328
g67
(dp1329
sg76
g1314
sg69
(lp1330
g62
(g63
g64
NtRp1331
(dp1332
g67
(dp1333
g75
I4
ssg76
g1327
sg69
(lp1334
g105
asbasbasbag62
(g78
g64
NtRp1335
(dp1336
g67
(dp1337
sg76
g1197
sg69
(lp1338
g62
(g83
g64
NtRp1339
(dp1340
g67
(dp1341
g87
g88
ssg76
g1335
sg69
(lp1342
S'gluon_parent'
p1343
asbag62
(g83
g64
NtRp1344
(dp1345
g67
(dp1346
g94
g95
ssg76
g1335
sg69
(lp1347
S':'
asbag62
(g83
g64
NtRp1348
(dp1349
g67
(dp1350
sg76
g1335
sg69
(lp1351
g62
(g63
g64
NtRp1352
(dp1353
g67
(dp1354
g75
I4
ssg76
g1348
sg69
(lp1355
S'/Users/bmiller/src/eds'
p1356
asbasbasbag62
(g78
g64
NtRp1357
(dp1358
g67
(dp1359
sg76
g1197
sg69
(lp1360
g62
(g83
g64
NtRp1361
(dp1362
g67
(dp1363
g87
g88
ssg76
g1357
sg69
(lp1364
S'http_accept'
p1365
asbag62
(g83
g64
NtRp1366
(dp1367
g67
(dp1368
g94
g95
ssg76
g1357
sg69
(lp1369
S':'
asbag62
(g83
g64
NtRp1370
(dp1371
g67
(dp1372
sg76
g1357
sg69
(lp1373
g62
(g63
g64
NtRp1374
(dp1375
g67
(dp1376
g75
I4
ssg76
g1370
sg69
(lp1377
S'text/html,application/xhtml+xml,application/xml;q=0.9,*/*;q=0.8'
p1378
asbasbasbag62
(g78
g64
NtRp1379
(dp1380
g67
(dp1381
sg76
g1197
sg69
(lp1382
g62
(g83
g64
NtRp1383
(dp1384
g67
(dp1385
g87
g88
ssg76
g1379
sg69
(lp1386
S'http_accept_charset'
p1387
asbag62
(g83
g64
NtRp1388
(dp1389
g67
(dp1390
g94
g95
ssg76
g1379
sg69
(lp1391
S':'
asbag62
(g83
g64
NtRp1392
(dp1393
g67
(dp1394
sg76
g1379
sg69
(lp1395
g62
(g63
g64
NtRp1396
(dp1397
g67
(dp1398
g75
I4
ssg76
g1392
sg69
(lp1399
S'ISO-8859-1,utf-8;q=0.7,*;q=0.3'
p1400
asbasbasbag62
(g78
g64
NtRp1401
(dp1402
g67
(dp1403
sg76
g1197
sg69
(lp1404
g62
(g83
g64
NtRp1405
(dp1406
g67
(dp1407
g87
g88
ssg76
g1401
sg69
(lp1408
S'http_accept_encoding'
p1409
asbag62
(g83
g64
NtRp1410
(dp1411
g67
(dp1412
g94
g95
ssg76
g1401
sg69
(lp1413
S':'
asbag62
(g83
g64
NtRp1414
(dp1415
g67
(dp1416
sg76
g1401
sg69
(lp1417
g62
(g63
g64
NtRp1418
(dp1419
g67
(dp1420
g75
I4
ssg76
g1414
sg69
(lp1421
S'gzip,deflate,sdch'
p1422
asbasbasbag62
(g78
g64
NtRp1423
(dp1424
g67
(dp1425
sg76
g1197
sg69
(lp1426
g62
(g83
g64
NtRp1427
(dp1428
g67
(dp1429
g87
g88
ssg76
g1423
sg69
(lp1430
S'http_accept_language'
p1431
asbag62
(g83
g64
NtRp1432
(dp1433
g67
(dp1434
g94
g95
ssg76
g1423
sg69
(lp1435
S':'
asbag62
(g83
g64
NtRp1436
(dp1437
g67
(dp1438
sg76
g1423
sg69
(lp1439
g62
(g63
g64
NtRp1440
(dp1441
g67
(dp1442
g75
I4
ssg76
g1436
sg69
(lp1443
S'en-US,en;q=0.8'
p1444
asbasbasbag62
(g78
g64
NtRp1445
(dp1446
g67
(dp1447
sg76
g1197
sg69
(lp1448
g62
(g83
g64
NtRp1449
(dp1450
g67
(dp1451
g87
g88
ssg76
g1445
sg69
(lp1452
S'http_cache_control'
p1453
asbag62
(g83
g64
NtRp1454
(dp1455
g67
(dp1456
g94
g95
ssg76
g1445
sg69
(lp1457
S':'
asbag62
(g83
g64
NtRp1458
(dp1459
g67
(dp1460
sg76
g1445
sg69
(lp1461
g62
(g63
g64
NtRp1462
(dp1463
g67
(dp1464
g75
I4
ssg76
g1458
sg69
(lp1465
S'max-age=0'
p1466
asbasbasbag62
(g78
g64
NtRp1467
(dp1468
g67
(dp1469
sg76
g1197
sg69
(lp1470
g62
(g83
g64
NtRp1471
(dp1472
g67
(dp1473
g87
g88
ssg76
g1467
sg69
(lp1474
S'http_connection'
p1475
asbag62
(g83
g64
NtRp1476
(dp1477
g67
(dp1478
g94
g95
ssg76
g1467
sg69
(lp1479
S':'
asbag62
(g83
g64
NtRp1480
(dp1481
g67
(dp1482
sg76
g1467
sg69
(lp1483
g62
(g63
g64
NtRp1484
(dp1485
g67
(dp1486
g75
I4
ssg76
g1480
sg69
(lp1487
S'keep-alive'
p1488
asbasbasbag62
(g78
g64
NtRp1489
(dp1490
g67
(dp1491
sg76
g1197
sg69
(lp1492
g62
(g83
g64
NtRp1493
(dp1494
g67
(dp1495
g87
g88
ssg76
g1489
sg69
(lp1496
S'http_cookie'
p1497
asbag62
(g83
g64
NtRp1498
(dp1499
g67
(dp1500
g94
g95
ssg76
g1489
sg69
(lp1501
S':'
asbag62
(g83
g64
NtRp1502
(dp1503
g67
(dp1504
sg76
g1489
sg69
(lp1505
g62
(g63
g64
NtRp1506
(dp1507
g67
(dp1508
g75
I4
ssg76
g1502
sg69
(lp1509
S'__utma=96992031.425123543.1317248902.1317248902.1317248902.1; __utmz=96992031.1317248902.1.1.utmcsr=(direct)|utmccn=(direct)|utmcmd=(none); session_id_thing=127.0.0.1-3e54a661-6ebe-4938-b851-688a3a238bbf; session_id_testeds=127.0.0.1-608b18d8-ad62-478a-825b-cb402d4dfc79; session_id_welcome=127.0.0.1-14e79e78-df08-4622-b603-d83bac61c073; session_id_eds=127.0.0.1-606c6b2f-5df6-4644-a034-00968e408966; session_id_admin=127.0.0.1-cb11ac90-c0ba-4331-8d8d-6ecc1a3faec9'
p1510
asbasbasbag62
(g78
g64
NtRp1511
(dp1512
g67
(dp1513
sg76
g1197
sg69
(lp1514
g62
(g83
g64
NtRp1515
(dp1516
g67
(dp1517
g87
g88
ssg76
g1511
sg69
(lp1518
S'http_host'
p1519
asbag62
(g83
g64
NtRp1520
(dp1521
g67
(dp1522
g94
g95
ssg76
g1511
sg69
(lp1523
S':'
asbag62
(g83
g64
NtRp1524
(dp1525
g67
(dp1526
sg76
g1511
sg69
(lp1527
g62
(g63
g64
NtRp1528
(dp1529
g67
(dp1530
g75
I4
ssg76
g1524
sg69
(lp1531
S'127.0.0.1:8000'
p1532
asbasbasbag62
(g78
g64
NtRp1533
(dp1534
g67
(dp1535
sg76
g1197
sg69
(lp1536
g62
(g83
g64
NtRp1537
(dp1538
g67
(dp1539
g87
g88
ssg76
g1533
sg69
(lp1540
S'http_user_agent'
p1541
asbag62
(g83
g64
NtRp1542
(dp1543
g67
(dp1544
g94
g95
ssg76
g1533
sg69
(lp1545
S':'
asbag62
(g83
g64
NtRp1546
(dp1547
g67
(dp1548
sg76
g1533
sg69
(lp1549
g62
(g63
g64
NtRp1550
(dp1551
g67
(dp1552
g75
I4
ssg76
g1546
sg69
(lp1553
S'Mozilla/5.0 (Macintosh; Intel Mac OS X 10_7_2) AppleWebKit/535.11 (KHTML, like Gecko) Chrome/17.0.963.33 Safari/535.11'
p1554
asbasbasbag62
(g78
g64
NtRp1555
(dp1556
g67
(dp1557
sg76
g1197
sg69
(lp1558
g62
(g83
g64
NtRp1559
(dp1560
g67
(dp1561
g87
g88
ssg76
g1555
sg69
(lp1562
S'is_jython'
p1563
asbag62
(g83
g64
NtRp1564
(dp1565
g67
(dp1566
g94
g95
ssg76
g1555
sg69
(lp1567
S':'
asbag62
(g83
g64
NtRp1568
(dp1569
g67
(dp1570
sg76
g1555
sg69
(lp1571
g62
(g63
g64
NtRp1572
(dp1573
g67
(dp1574
g75
I4
ssg76
g1568
sg69
(lp1575
g105
asbasbasbag62
(g78
g64
NtRp1576
(dp1577
g67
(dp1578
sg76
g1197
sg69
(lp1579
g62
(g83
g64
NtRp1580
(dp1581
g67
(dp1582
g87
g88
ssg76
g1576
sg69
(lp1583
S'is_pypy'
p1584
asbag62
(g83
g64
NtRp1585
(dp1586
g67
(dp1587
g94
g95
ssg76
g1576
sg69
(lp1588
S':'
asbag62
(g83
g64
NtRp1589
(dp1590
g67
(dp1591
sg76
g1576
sg69
(lp1592
g62
(g63
g64
NtRp1593
(dp1594
g67
(dp1595
g75
I4
ssg76
g1589
sg69
(lp1596
g105
asbasbasbag62
(g78
g64
NtRp1597
(dp1598
g67
(dp1599
sg76
g1197
sg69
(lp1600
g62
(g83
g64
NtRp1601
(dp1602
g67
(dp1603
g87
g88
ssg76
g1597
sg69
(lp1604
S'path_info'
p1605
asbag62
(g83
g64
NtRp1606
(dp1607
g67
(dp1608
g94
g95
ssg76
g1597
sg69
(lp1609
S':'
asbag62
(g83
g64
NtRp1610
(dp1611
g67
(dp1612
sg76
g1597
sg69
(lp1613
g62
(g63
g64
NtRp1614
(dp1615
g67
(dp1616
g75
I4
ssg76
g1610
sg69
(lp1617
S'/eds/build/builddoc'
p1618
asbasbasbag62
(g78
g64
NtRp1619
(dp1620
g67
(dp1621
sg76
g1197
sg69
(lp1622
g62
(g83
g64
NtRp1623
(dp1624
g67
(dp1625
g87
g88
ssg76
g1619
sg69
(lp1626
S'query_string'
p1627
asbag62
(g83
g64
NtRp1628
(dp1629
g67
(dp1630
g94
g95
ssg76
g1619
sg69
(lp1631
S':'
asbag62
(g83
g64
NtRp1632
(dp1633
g67
(dp1634
sg76
g1619
sg69
(lp1635
g62
(g63
g64
NtRp1636
(dp1637
g67
(dp1638
g75
I4
ssg76
g1632
sg69
(lp1639
S''
asbasbasbag62
(g78
g64
NtRp1640
(dp1641
g67
(dp1642
sg76
g1197
sg69
(lp1643
g62
(g83
g64
NtRp1644
(dp1645
g67
(dp1646
g87
g88
ssg76
g1640
sg69
(lp1647
S'remote_addr'
p1648
asbag62
(g83
g64
NtRp1649
(dp1650
g67
(dp1651
g94
g95
ssg76
g1640
sg69
(lp1652
S':'
asbag62
(g83
g64
NtRp1653
(dp1654
g67
(dp1655
sg76
g1640
sg69
(lp1656
g62
(g63
g64
NtRp1657
(dp1658
g67
(dp1659
g75
I4
ssg76
g1653
sg69
(lp1660
g195
asbasbasbag62
(g78
g64
NtRp1661
(dp1662
g67
(dp1663
sg76
g1197
sg69
(lp1664
g62
(g83
g64
NtRp1665
(dp1666
g67
(dp1667
g87
g88
ssg76
g1661
sg69
(lp1668
S'remote_port'
p1669
asbag62
(g83
g64
NtRp1670
(dp1671
g67
(dp1672
g94
g95
ssg76
g1661
sg69
(lp1673
S':'
asbag62
(g83
g64
NtRp1674
(dp1675
g67
(dp1676
sg76
g1661
sg69
(lp1677
g62
(g63
g64
NtRp1678
(dp1679
g67
(dp1680
g75
I4
ssg76
g1674
sg69
(lp1681
S'54622'
p1682
asbasbasbag62
(g78
g64
NtRp1683
(dp1684
g67
(dp1685
sg76
g1197
sg69
(lp1686
g62
(g83
g64
NtRp1687
(dp1688
g67
(dp1689
g87
g88
ssg76
g1683
sg69
(lp1690
S'request_method'
p1691
asbag62
(g83
g64
NtRp1692
(dp1693
g67
(dp1694
g94
g95
ssg76
g1683
sg69
(lp1695
S':'
asbag62
(g83
g64
NtRp1696
(dp1697
g67
(dp1698
sg76
g1683
sg69
(lp1699
g62
(g63
g64
NtRp1700
(dp1701
g67
(dp1702
g75
I4
ssg76
g1696
sg69
(lp1703
S'GET'
p1704
asbasbasbag62
(g78
g64
NtRp1705
(dp1706
g67
(dp1707
sg76
g1197
sg69
(lp1708
g62
(g83
g64
NtRp1709
(dp1710
g67
(dp1711
g87
g88
ssg76
g1705
sg69
(lp1712
S'script_name'
p1713
asbag62
(g83
g64
NtRp1714
(dp1715
g67
(dp1716
g94
g95
ssg76
g1705
sg69
(lp1717
S':'
asbag62
(g83
g64
NtRp1718
(dp1719
g67
(dp1720
sg76
g1705
sg69
(lp1721
g62
(g63
g64
NtRp1722
(dp1723
g67
(dp1724
g75
I4
ssg76
g1718
sg69
(lp1725
S''
asbasbasbag62
(g78
g64
NtRp1726
(dp1727
g67
(dp1728
sg76
g1197
sg69
(lp1729
g62
(g83
g64
NtRp1730
(dp1731
g67
(dp1732
g87
g88
ssg76
g1726
sg69
(lp1733
S'server_name'
p1734
asbag62
(g83
g64
NtRp1735
(dp1736
g67
(dp1737
g94
g95
ssg76
g1726
sg69
(lp1738
S':'
asbag62
(g83
g64
NtRp1739
(dp1740
g67
(dp1741
sg76
g1726
sg69
(lp1742
g62
(g63
g64
NtRp1743
(dp1744
g67
(dp1745
g75
I4
ssg76
g1739
sg69
(lp1746
S'chronos.local'
p1747
asbasbasbag62
(g78
g64
NtRp1748
(dp1749
g67
(dp1750
sg76
g1197
sg69
(lp1751
g62
(g83
g64
NtRp1752
(dp1753
g67
(dp1754
g87
g88
ssg76
g1748
sg69
(lp1755
S'server_port'
p1756
asbag62
(g83
g64
NtRp1757
(dp1758
g67
(dp1759
g94
g95
ssg76
g1748
sg69
(lp1760
S':'
asbag62
(g83
g64
NtRp1761
(dp1762
g67
(dp1763
sg76
g1748
sg69
(lp1764
g62
(g63
g64
NtRp1765
(dp1766
g67
(dp1767
g75
I4
ssg76
g1761
sg69
(lp1768
S'8000'
p1769
asbasbasbag62
(g78
g64
NtRp1770
(dp1771
g67
(dp1772
sg76
g1197
sg69
(lp1773
g62
(g83
g64
NtRp1774
(dp1775
g67
(dp1776
g87
g88
ssg76
g1770
sg69
(lp1777
S'server_protocol'
p1778
asbag62
(g83
g64
NtRp1779
(dp1780
g67
(dp1781
g94
g95
ssg76
g1770
sg69
(lp1782
S':'
asbag62
(g83
g64
NtRp1783
(dp1784
g67
(dp1785
sg76
g1770
sg69
(lp1786
g62
(g63
g64
NtRp1787
(dp1788
g67
(dp1789
g75
I4
ssg76
g1783
sg69
(lp1790
S'HTTP/1.1'
p1791
asbasbasbag62
(g78
g64
NtRp1792
(dp1793
g67
(dp1794
sg76
g1197
sg69
(lp1795
g62
(g83
g64
NtRp1796
(dp1797
g67
(dp1798
g87
g88
ssg76
g1792
sg69
(lp1799
S'server_software'
p1800
asbag62
(g83
g64
NtRp1801
(dp1802
g67
(dp1803
g94
g95
ssg76
g1792
sg69
(lp1804
S':'
asbag62
(g83
g64
NtRp1805
(dp1806
g67
(dp1807
sg76
g1792
sg69
(lp1808
g62
(g63
g64
NtRp1809
(dp1810
g67
(dp1811
g75
I4
ssg76
g1805
sg69
(lp1812
S'Rocket 1.2.4'
p1813
asbasbasbag62
(g78
g64
NtRp1814
(dp1815
g67
(dp1816
sg76
g1197
sg69
(lp1817
g62
(g83
g64
NtRp1818
(dp1819
g67
(dp1820
g87
g88
ssg76
g1814
sg69
(lp1821
S'web2py_crontype'
p1822
asbag62
(g83
g64
NtRp1823
(dp1824
g67
(dp1825
g94
g95
ssg76
g1814
sg69
(lp1826
S':'
asbag62
(g83
g64
NtRp1827
(dp1828
g67
(dp1829
sg76
g1814
sg69
(lp1830
g62
(g63
g64
NtRp1831
(dp1832
g67
(dp1833
g75
I4
ssg76
g1827
sg69
(lp1834
S'hard'
p1835
asbasbasbag62
(g78
g64
NtRp1836
(dp1837
g67
(dp1838
sg76
g1197
sg69
(lp1839
g62
(g83
g64
NtRp1840
(dp1841
g67
(dp1842
g87
g88
ssg76
g1836
sg69
(lp1843
S'web2py_path'
p1844
asbag62
(g83
g64
NtRp1845
(dp1846
g67
(dp1847
g94
g95
ssg76
g1836
sg69
(lp1848
S':'
asbag62
(g83
g64
NtRp1849
(dp1850
g67
(dp1851
sg76
g1836
sg69
(lp1852
g62
(g63
g64
NtRp1853
(dp1854
g67
(dp1855
g75
I4
ssg76
g1849
sg69
(lp1856
g1244
asbasbasbag62
(g78
g64
NtRp1857
(dp1858
g67
(dp1859
sg76
g1197
sg69
(lp1860
g62
(g83
g64
NtRp1861
(dp1862
g67
(dp1863
g87
g88
ssg76
g1857
sg69
(lp1864
S'web2py_version'
p1865
asbag62
(g83
g64
NtRp1866
(dp1867
g67
(dp1868
g94
g95
ssg76
g1857
sg69
(lp1869
S':'
asbag62
(g83
g64
NtRp1870
(dp1871
g67
(dp1872
sg76
g1857
sg69
(lp1873
g62
(g63
g64
NtRp1874
(dp1875
g67
(dp1876
g75
I4
ssg76
g1870
sg69
(lp1877
g62
(g71
g64
NtRp1878
(dp1879
g67
(dp1880
g75
I3
ssg76
Nsg69
(lp1881
g62
(g78
g64
NtRp1882
(dp1883
g67
(dp1884
sg76
g1878
sg69
(lp1885
g62
(g83
g64
NtRp1886
(dp1887
g67
(dp1888
sg76
g1882
sg69
(lp1889
g62
(g63
g64
NtRp1890
(dp1891
g67
(dp1892
g75
I3
ssg76
g1886
sg69
(lp1893
S'1'
asbasbasbag62
(g78
g64
NtRp1894
(dp1895
g67
(dp1896
sg76
g1878
sg69
(lp1897
g62
(g83
g64
NtRp1898
(dp1899
g67
(dp1900
sg76
g1894
sg69
(lp1901
g62
(g63
g64
NtRp1902
(dp1903
g67
(dp1904
g75
I3
ssg76
g1898
sg69
(lp1905
S'99'
p1906
asbasbasbag62
(g78
g64
NtRp1907
(dp1908
g67
(dp1909
sg76
g1878
sg69
(lp1910
g62
(g83
g64
NtRp1911
(dp1912
g67
(dp1913
sg76
g1907
sg69
(lp1914
g62
(g63
g64
NtRp1915
(dp1916
g67
(dp1917
g75
I3
ssg76
g1911
sg69
(lp1918
S'4'
asbasbasbag62
(g78
g64
NtRp1919
(dp1920
g67
(dp1921
sg76
g1878
sg69
(lp1922
g62
(g83
g64
NtRp1923
(dp1924
g67
(dp1925
sg76
g1919
sg69
(lp1926
g62
(g63
g64
NtRp1927
(dp1928
g67
(dp1929
g75
I3
ssg76
g1923
sg69
(lp1930
S'datetime.datetime(2011, 12, 14, 14, 46, 14)'
p1931
asbasbasbag62
(g78
g64
NtRp1932
(dp1933
g67
(dp1934
sg76
g1878
sg69
(lp1935
g62
(g83
g64
NtRp1936
(dp1937
g67
(dp1938
sg76
g1932
sg69
(lp1939
g62
(g63
g64
NtRp1940
(dp1941
g67
(dp1942
g75
I3
ssg76
g1936
sg69
(lp1943
S'stable'
p1944
asbasbasbasbasbasbasbag62
(g78
g64
NtRp1945
(dp1946
g67
(dp1947
sg76
g1197
sg69
(lp1948
g62
(g83
g64
NtRp1949
(dp1950
g67
(dp1951
g87
g88
ssg76
g1945
sg69
(lp1952
S'wsgi_errors'
p1953
asbag62
(g83
g64
NtRp1954
(dp1955
g67
(dp1956
g94
g95
ssg76
g1945
sg69
(lp1957
S':'
asbag62
(g83
g64
NtRp1958
(dp1959
g67
(dp1960
sg76
g1945
sg69
(lp1961
g62
(g63
g64
NtRp1962
(dp1963
g67
(dp1964
g75
I4
ssg76
g1958
sg69
(lp1965
S"<open file '<stderr>', mode 'w' at 0x10403c270>"
p1966
asbasbasbag62
(g78
g64
NtRp1967
(dp1968
g67
(dp1969
sg76
g1197
sg69
(lp1970
g62
(g83
g64
NtRp1971
(dp1972
g67
(dp1973
g87
g88
ssg76
g1967
sg69
(lp1974
S'wsgi_file_wrapper'
p1975
asbag62
(g83
g64
NtRp1976
(dp1977
g67
(dp1978
g94
g95
ssg76
g1967
sg69
(lp1979
S':'
asbag62
(g83
g64
NtRp1980
(dp1981
g67
(dp1982
sg76
g1967
sg69
(lp1983
g62
(g63
g64
NtRp1984
(dp1985
g67
(dp1986
g75
I4
ssg76
g1980
sg69
(lp1987
S'<class wsgiref.util.FileWrapper at 0x1049f1598>'
p1988
asbasbasbag62
(g78
g64
NtRp1989
(dp1990
g67
(dp1991
sg76
g1197
sg69
(lp1992
g62
(g83
g64
NtRp1993
(dp1994
g67
(dp1995
g87
g88
ssg76
g1989
sg69
(lp1996
S'wsgi_input'
p1997
asbag62
(g83
g64
NtRp1998
(dp1999
g67
(dp2000
g94
g95
ssg76
g1989
sg69
(lp2001
S':'
asbag62
(g83
g64
NtRp2002
(dp2003
g67
(dp2004
sg76
g1989
sg69
(lp2005
g62
(g63
g64
NtRp2006
(dp2007
g67
(dp2008
g75
I4
ssg76
g2002
sg69
(lp2009
S'<socket._fileobject object at 0x1064ad3d0>'
p2010
asbasbasbag62
(g78
g64
NtRp2011
(dp2012
g67
(dp2013
sg76
g1197
sg69
(lp2014
g62
(g83
g64
NtRp2015
(dp2016
g67
(dp2017
g87
g88
ssg76
g2011
sg69
(lp2018
S'wsgi_multiprocess'
p2019
asbag62
(g83
g64
NtRp2020
(dp2021
g67
(dp2022
g94
g95
ssg76
g2011
sg69
(lp2023
S':'
asbag62
(g83
g64
NtRp2024
(dp2025
g67
(dp2026
sg76
g2011
sg69
(lp2027
g62
(g63
g64
NtRp2028
(dp2029
g67
(dp2030
g75
I4
ssg76
g2024
sg69
(lp2031
g105
asbasbasbag62
(g78
g64
NtRp2032
(dp2033
g67
(dp2034
sg76
g1197
sg69
(lp2035
g62
(g83
g64
NtRp2036
(dp2037
g67
(dp2038
g87
g88
ssg76
g2032
sg69
(lp2039
S'wsgi_multithread'
p2040
asbag62
(g83
g64
NtRp2041
(dp2042
g67
(dp2043
g94
g95
ssg76
g2032
sg69
(lp2044
S':'
asbag62
(g83
g64
NtRp2045
(dp2046
g67
(dp2047
sg76
g2032
sg69
(lp2048
g62
(g63
g64
NtRp2049
(dp2050
g67
(dp2051
g75
I4
ssg76
g2045
sg69
(lp2052
S'True'
p2053
asbasbasbag62
(g78
g64
NtRp2054
(dp2055
g67
(dp2056
sg76
g1197
sg69
(lp2057
g62
(g83
g64
NtRp2058
(dp2059
g67
(dp2060
g87
g88
ssg76
g2054
sg69
(lp2061
S'wsgi_run_once'
p2062
asbag62
(g83
g64
NtRp2063
(dp2064
g67
(dp2065
g94
g95
ssg76
g2054
sg69
(lp2066
S':'
asbag62
(g83
g64
NtRp2067
(dp2068
g67
(dp2069
sg76
g2054
sg69
(lp2070
g62
(g63
g64
NtRp2071
(dp2072
g67
(dp2073
g75
I4
ssg76
g2067
sg69
(lp2074
g105
asbasbasbag62
(g78
g64
NtRp2075
(dp2076
g67
(dp2077
sg76
g1197
sg69
(lp2078
g62
(g83
g64
NtRp2079
(dp2080
g67
(dp2081
g87
g88
ssg76
g2075
sg69
(lp2082
S'wsgi_url_scheme'
p2083
asbag62
(g83
g64
NtRp2084
(dp2085
g67
(dp2086
g94
g95
ssg76
g2075
sg69
(lp2087
S':'
asbag62
(g83
g64
NtRp2088
(dp2089
g67
(dp2090
sg76
g2075
sg69
(lp2091
g62
(g63
g64
NtRp2092
(dp2093
g67
(dp2094
g75
I4
ssg76
g2088
sg69
(lp2095
S'http'
p2096
asbasbasbag62
(g78
g64
NtRp2097
(dp2098
g67
(dp2099
sg76
g1197
sg69
(lp2100
g62
(g83
g64
NtRp2101
(dp2102
g67
(dp2103
g87
g88
ssg76
g2097
sg69
(lp2104
S'wsgi_version'
p2105
asbag62
(g83
g64
NtRp2106
(dp2107
g67
(dp2108
g94
g95
ssg76
g2097
sg69
(lp2109
S':'
asbag62
(g83
g64
NtRp2110
(dp2111
g67
(dp2112
sg76
g2097
sg69
(lp2113
g62
(g63
g64
NtRp2114
(dp2115
g67
(dp2116
g75
I4
ssg76
g2110
sg69
(lp2117
g62
(g71
g64
NtRp2118
(dp2119
g67
(dp2120
g75
I3
ssg76
Nsg69
(lp2121
g62
(g78
g64
NtRp2122
(dp2123
g67
(dp2124
sg76
g2118
sg69
(lp2125
g62
(g83
g64
NtRp2126
(dp2127
g67
(dp2128
sg76
g2122
sg69
(lp2129
g62
(g63
g64
NtRp2130
(dp2131
g67
(dp2132
g75
I3
ssg76
g2126
sg69
(lp2133
S'1'
asbasbasbag62
(g78
g64
NtRp2134
(dp2135
g67
(dp2136
sg76
g2118
sg69
(lp2137
g62
(g83
g64
NtRp2138
(dp2139
g67
(dp2140
sg76
g2134
sg69
(lp2141
g62
(g63
g64
NtRp2142
(dp2143
g67
(dp2144
g75
I3
ssg76
g2138
sg69
(lp2145
S'0'
asbasbasbasbasbasbasbasbasbasbasbag62
(g78
g64
NtRp2146
(dp2147
g67
(dp2148
sg76
g72
sg69
(lp2149
g62
(g83
g64
NtRp2150
(dp2151
g67
(dp2152
g87
g88
ssg76
g2146
sg69
(lp2153
S'extension'
p2154
asbag62
(g83
g64
NtRp2155
(dp2156
g67
(dp2157
g94
g95
ssg76
g2146
sg69
(lp2158
S':'
asbag62
(g83
g64
NtRp2159
(dp2160
g67
(dp2161
sg76
g2146
sg69
(lp2162
g62
(g63
g64
NtRp2163
(dp2164
g67
(dp2165
g75
I5
ssg76
g2159
sg69
(lp2166
S'html'
p2167
asbasbasbag62
(g78
g64
NtRp2168
(dp2169
g67
(dp2170
sg76
g72
sg69
(lp2171
g62
(g83
g64
NtRp2172
(dp2173
g67
(dp2174
g87
g88
ssg76
g2168
sg69
(lp2175
S'folder'
p2176
asbag62
(g83
g64
NtRp2177
(dp2178
g67
(dp2179
g94
g95
ssg76
g2168
sg69
(lp2180
S':'
asbag62
(g83
g64
NtRp2181
(dp2182
g67
(dp2183
sg76
g2168
sg69
(lp2184
g62
(g63
g64
NtRp2185
(dp2186
g67
(dp2187
g75
I5
ssg76
g2181
sg69
(lp2188
S'/Users/bmiller/src/eds/applications/eds/'
p2189
asbasbasbag62
(g78
g64
NtRp2190
(dp2191
g67
(dp2192
sg76
g72
sg69
(lp2193
g62
(g83
g64
NtRp2194
(dp2195
g67
(dp2196
g87
g88
ssg76
g2190
sg69
(lp2197
S'function'
p2198
asbag62
(g83
g64
NtRp2199
(dp2200
g67
(dp2201
g94
g95
ssg76
g2190
sg69
(lp2202
S':'
asbag62
(g83
g64
NtRp2203
(dp2204
g67
(dp2205
sg76
g2190
sg69
(lp2206
g62
(g63
g64
NtRp2207
(dp2208
g67
(dp2209
g75
I5
ssg76
g2203
sg69
(lp2210
S'builddoc'
p2211
asbasbasbag62
(g78
g64
NtRp2212
(dp2213
g67
(dp2214
sg76
g72
sg69
(lp2215
g62
(g83
g64
NtRp2216
(dp2217
g67
(dp2218
g87
g88
ssg76
g2212
sg69
(lp2219
S'get_vars'
p2220
asbag62
(g83
g64
NtRp2221
(dp2222
g67
(dp2223
g94
g95
ssg76
g2212
sg69
(lp2224
S':'
asbag62
(g83
g64
NtRp2225
(dp2226
g67
(dp2227
sg76
g2212
sg69
(lp2228
g62
(g63
g64
NtRp2229
(dp2230
g67
(dp2231
g75
I5
ssg76
g2225
sg69
(lp2232
g62
(g71
g64
NtRp2233
(dp2234
g67
(dp2235
g75
I4
ssg76
Nsg69
(lp2236
sbasbasbasbag62
(g78
g64
NtRp2237
(dp2238
g67
(dp2239
sg76
g72
sg69
(lp2240
g62
(g83
g64
NtRp2241
(dp2242
g67
(dp2243
g87
g88
ssg76
g2237
sg69
(lp2244
S'global_settings'
p2245
asbag62
(g83
g64
NtRp2246
(dp2247
g67
(dp2248
g94
g95
ssg76
g2237
sg69
(lp2249
S':'
asbag62
(g83
g64
NtRp2250
(dp2251
g67
(dp2252
sg76
g2237
sg69
(lp2253
g62
(g63
g64
NtRp2254
(dp2255
g67
(dp2256
g75
I5
ssg76
g2250
sg69
(lp2257
g62
(g71
g64
NtRp2258
(dp2259
g67
(dp2260
g75
I4
ssg76
Nsg69
(lp2261
g62
(g78
g64
NtRp2262
(dp2263
g67
(dp2264
sg76
g2258
sg69
(lp2265
g62
(g83
g64
NtRp2266
(dp2267
g67
(dp2268
g87
g88
ssg76
g2262
sg69
(lp2269
g1209
asbag62
(g83
g64
NtRp2270
(dp2271
g67
(dp2272
g94
g95
ssg76
g2262
sg69
(lp2273
S':'
asbag62
(g83
g64
NtRp2274
(dp2275
g67
(dp2276
sg76
g2262
sg69
(lp2277
g62
(g63
g64
NtRp2278
(dp2279
g67
(dp2280
g75
I4
ssg76
g2274
sg69
(lp2281
S"set(['/Users/bmiller/src/eds/applications/eds/', '/Users/bmiller/src/eds/applications/admin/', '/Users/bmiller/src/eds/applications/welcome/'])"
p2282
asbasbasbag62
(g78
g64
NtRp2283
(dp2284
g67
(dp2285
sg76
g2258
sg69
(lp2286
g62
(g83
g64
NtRp2287
(dp2288
g67
(dp2289
g87
g88
ssg76
g2283
sg69
(lp2290
g1231
asbag62
(g83
g64
NtRp2291
(dp2292
g67
(dp2293
g94
g95
ssg76
g2283
sg69
(lp2294
S':'
asbag62
(g83
g64
NtRp2295
(dp2296
g67
(dp2297
sg76
g2283
sg69
(lp2298
g62
(g63
g64
NtRp2299
(dp2300
g67
(dp2301
g75
I4
ssg76
g2295
sg69
(lp2302
g1244
asbasbasbag62
(g78
g64
NtRp2303
(dp2304
g67
(dp2305
sg76
g2258
sg69
(lp2306
g62
(g83
g64
NtRp2307
(dp2308
g67
(dp2309
g87
g88
ssg76
g2303
sg69
(lp2310
g1253
asbag62
(g83
g64
NtRp2311
(dp2312
g67
(dp2313
g94
g95
ssg76
g2303
sg69
(lp2314
S':'
asbag62
(g83
g64
NtRp2315
(dp2316
g67
(dp2317
sg76
g2303
sg69
(lp2318
g62
(g63
g64
NtRp2319
(dp2320
g67
(dp2321
g75
I4
ssg76
g2315
sg69
(lp2322
g62
(g71
g64
NtRp2323
(dp2324
g67
(dp2325
g75
I3
ssg76
Nsg69
(lp2326
sbasbasbasbag62
(g78
g64
NtRp2327
(dp2328
g67
(dp2329
sg76
g2258
sg69
(lp2330
g62
(g83
g64
NtRp2331
(dp2332
g67
(dp2333
g87
g88
ssg76
g2327
sg69
(lp2334
g1278
asbag62
(g83
g64
NtRp2335
(dp2336
g67
(dp2337
g94
g95
ssg76
g2327
sg69
(lp2338
S':'
asbag62
(g83
g64
NtRp2339
(dp2340
g67
(dp2341
sg76
g2327
sg69
(lp2342
g62
(g63
g64
NtRp2343
(dp2344
g67
(dp2345
g75
I4
ssg76
g2339
sg69
(lp2346
S"<Values at 0x104846f80: {'verbose': False, 'ip': '127.0.0.1', 'shutdown_timeout': 5, 'taskbar': False, 'nocron': False, 'pid_filename': 'httpserver.pid', 'maxthreads': None, 'softcron': False, 'server_name': 'chronos.local', 'bpython': False, 'nogui': False, 'port': 8000, 'extcron': False, 'debuglevel': 30, 'test': None, 'folder': '/Users/bmiller/src/eds', 'config': '', 'import_models': False, 'winservice': '', 'shell': None, 'run': '', 'log_filename': 'httpserver.log', 'args': [''], 'socket_timeout': 1, 'ssl_ca_certificate': None, 'scheduler': None, 'profiler_filename': None, 'ssl_private_key': '', 'password': '<ask>', 'request_queue_size': 5, 'ssl_certificate': '', 'cronjob': False, 'numthreads': None, 'quiet': False, 'interfaces': None, 'minthreads': None, 'timeout': 10, 'plain': False, 'nobanner': False}>"
p2347
asbasbasbag62
(g78
g64
NtRp2348
(dp2349
g67
(dp2350
sg76
g2258
sg69
(lp2351
g62
(g83
g64
NtRp2352
(dp2353
g67
(dp2354
g87
g88
ssg76
g2348
sg69
(lp2355
g1300
asbag62
(g83
g64
NtRp2356
(dp2357
g67
(dp2358
g94
g95
ssg76
g2348
sg69
(lp2359
S':'
asbag62
(g83
g64
NtRp2360
(dp2361
g67
(dp2362
sg76
g2348
sg69
(lp2363
g62
(g63
g64
NtRp2364
(dp2365
g67
(dp2366
g75
I4
ssg76
g2360
sg69
(lp2367
S'set([])'
p2368
asbasbasbag62
(g78
g64
NtRp2369
(dp2370
g67
(dp2371
sg76
g2258
sg69
(lp2372
g62
(g83
g64
NtRp2373
(dp2374
g67
(dp2375
g87
g88
ssg76
g2369
sg69
(lp2376
g1322
asbag62
(g83
g64
NtRp2377
(dp2378
g67
(dp2379
g94
g95
ssg76
g2369
sg69
(lp2380
S':'
asbag62
(g83
g64
NtRp2381
(dp2382
g67
(dp2383
sg76
g2369
sg69
(lp2384
g62
(g63
g64
NtRp2385
(dp2386
g67
(dp2387
g75
I4
ssg76
g2381
sg69
(lp2388
g105
asbasbasbag62
(g78
g64
NtRp2389
(dp2390
g67
(dp2391
sg76
g2258
sg69
(lp2392
g62
(g83
g64
NtRp2393
(dp2394
g67
(dp2395
g87
g88
ssg76
g2389
sg69
(lp2396
g1343
asbag62
(g83
g64
NtRp2397
(dp2398
g67
(dp2399
g94
g95
ssg76
g2389
sg69
(lp2400
S':'
asbag62
(g83
g64
NtRp2401
(dp2402
g67
(dp2403
sg76
g2389
sg69
(lp2404
g62
(g63
g64
NtRp2405
(dp2406
g67
(dp2407
g75
I4
ssg76
g2401
sg69
(lp2408
g1356
asbasbasbag62
(g78
g64
NtRp2409
(dp2410
g67
(dp2411
sg76
g2258
sg69
(lp2412
g62
(g83
g64
NtRp2413
(dp2414
g67
(dp2415
g87
g88
ssg76
g2409
sg69
(lp2416
g1563
asbag62
(g83
g64
NtRp2417
(dp2418
g67
(dp2419
g94
g95
ssg76
g2409
sg69
(lp2420
S':'
asbag62
(g83
g64
NtRp2421
(dp2422
g67
(dp2423
sg76
g2409
sg69
(lp2424
g62
(g63
g64
NtRp2425
(dp2426
g67
(dp2427
g75
I4
ssg76
g2421
sg69
(lp2428
g105
asbasbasbag62
(g78
g64
NtRp2429
(dp2430
g67
(dp2431
sg76
g2258
sg69
(lp2432
g62
(g83
g64
NtRp2433
(dp2434
g67
(dp2435
g87
g88
ssg76
g2429
sg69
(lp2436
g1584
asbag62
(g83
g64
NtRp2437
(dp2438
g67
(dp2439
g94
g95
ssg76
g2429
sg69
(lp2440
S':'
asbag62
(g83
g64
NtRp2441
(dp2442
g67
(dp2443
sg76
g2429
sg69
(lp2444
g62
(g63
g64
NtRp2445
(dp2446
g67
(dp2447
g75
I4
ssg76
g2441
sg69
(lp2448
g105
asbasbasbag62
(g78
g64
NtRp2449
(dp2450
g67
(dp2451
sg76
g2258
sg69
(lp2452
g62
(g83
g64
NtRp2453
(dp2454
g67
(dp2455
g87
g88
ssg76
g2449
sg69
(lp2456
g1822
asbag62
(g83
g64
NtRp2457
(dp2458
g67
(dp2459
g94
g95
ssg76
g2449
sg69
(lp2460
S':'
asbag62
(g83
g64
NtRp2461
(dp2462
g67
(dp2463
sg76
g2449
sg69
(lp2464
g62
(g63
g64
NtRp2465
(dp2466
g67
(dp2467
g75
I4
ssg76
g2461
sg69
(lp2468
g1835
asbasbasbag62
(g78
g64
NtRp2469
(dp2470
g67
(dp2471
sg76
g2258
sg69
(lp2472
g62
(g83
g64
NtRp2473
(dp2474
g67
(dp2475
g87
g88
ssg76
g2469
sg69
(lp2476
g1865
asbag62
(g83
g64
NtRp2477
(dp2478
g67
(dp2479
g94
g95
ssg76
g2469
sg69
(lp2480
S':'
asbag62
(g83
g64
NtRp2481
(dp2482
g67
(dp2483
sg76
g2469
sg69
(lp2484
g62
(g63
g64
NtRp2485
(dp2486
g67
(dp2487
g75
I4
ssg76
g2481
sg69
(lp2488
g62
(g71
g64
NtRp2489
(dp2490
g67
(dp2491
g75
I3
ssg76
Nsg69
(lp2492
g62
(g78
g64
NtRp2493
(dp2494
g67
(dp2495
sg76
g2489
sg69
(lp2496
g62
(g83
g64
NtRp2497
(dp2498
g67
(dp2499
sg76
g2493
sg69
(lp2500
g62
(g63
g64
NtRp2501
(dp2502
g67
(dp2503
g75
I3
ssg76
g2497
sg69
(lp2504
S'1'
asbasbasbag62
(g78
g64
NtRp2505
(dp2506
g67
(dp2507
sg76
g2489
sg69
(lp2508
g62
(g83
g64
NtRp2509
(dp2510
g67
(dp2511
sg76
g2505
sg69
(lp2512
g62
(g63
g64
NtRp2513
(dp2514
g67
(dp2515
g75
I3
ssg76
g2509
sg69
(lp2516
S'99'
p2517
asbasbasbag62
(g78
g64
NtRp2518
(dp2519
g67
(dp2520
sg76
g2489
sg69
(lp2521
g62
(g83
g64
NtRp2522
(dp2523
g67
(dp2524
sg76
g2518
sg69
(lp2525
g62
(g63
g64
NtRp2526
(dp2527
g67
(dp2528
g75
I3
ssg76
g2522
sg69
(lp2529
S'4'
asbasbasbag62
(g78
g64
NtRp2530
(dp2531
g67
(dp2532
sg76
g2489
sg69
(lp2533
g62
(g83
g64
NtRp2534
(dp2535
g67
(dp2536
sg76
g2530
sg69
(lp2537
g62
(g63
g64
NtRp2538
(dp2539
g67
(dp2540
g75
I3
ssg76
g2534
sg69
(lp2541
S'datetime.datetime(2011, 12, 14, 14, 46, 14)'
p2542
asbasbasbag62
(g78
g64
NtRp2543
(dp2544
g67
(dp2545
sg76
g2489
sg69
(lp2546
g62
(g83
g64
NtRp2547
(dp2548
g67
(dp2549
sg76
g2543
sg69
(lp2550
g62
(g63
g64
NtRp2551
(dp2552
g67
(dp2553
g75
I3
ssg76
g2547
sg69
(lp2554
g1944
asbasbasbasbasbasbasbasbasbasbasbag62
(g78
g64
NtRp2555
(dp2556
g67
(dp2557
sg76
g72
sg69
(lp2558
g62
(g83
g64
NtRp2559
(dp2560
g67
(dp2561
g87
g88
ssg76
g2555
sg69
(lp2562
S'is_https'
p2563
asbag62
(g83
g64
NtRp2564
(dp2565
g67
(dp2566
g94
g95
ssg76
g2555
sg69
(lp2567
S':'
asbag62
(g83
g64
NtRp2568
(dp2569
g67
(dp2570
sg76
g2555
sg69
(lp2571
g62
(g63
g64
NtRp2572
(dp2573
g67
(dp2574
g75
I5
ssg76
g2568
sg69
(lp2575
g105
asbasbasbag62
(g78
g64
NtRp2576
(dp2577
g67
(dp2578
sg76
g72
sg69
(lp2579
g62
(g83
g64
NtRp2580
(dp2581
g67
(dp2582
g87
g88
ssg76
g2576
sg69
(lp2583
S'is_local'
p2584
asbag62
(g83
g64
NtRp2585
(dp2586
g67
(dp2587
g94
g95
ssg76
g2576
sg69
(lp2588
S':'
asbag62
(g83
g64
NtRp2589
(dp2590
g67
(dp2591
sg76
g2576
sg69
(lp2592
g62
(g63
g64
NtRp2593
(dp2594
g67
(dp2595
g75
I5
ssg76
g2589
sg69
(lp2596
g2053
asbasbasbag62
(g78
g64
NtRp2597
(dp2598
g67
(dp2599
sg76
g72
sg69
(lp2600
g62
(g83
g64
NtRp2601
(dp2602
g67
(dp2603
g87
g88
ssg76
g2597
sg69
(lp2604
S'is_restful'
p2605
asbag62
(g83
g64
NtRp2606
(dp2607
g67
(dp2608
g94
g95
ssg76
g2597
sg69
(lp2609
S':'
asbag62
(g83
g64
NtRp2610
(dp2611
g67
(dp2612
sg76
g2597
sg69
(lp2613
g62
(g63
g64
NtRp2614
(dp2615
g67
(dp2616
g75
I5
ssg76
g2610
sg69
(lp2617
g105
asbasbasbag62
(g78
g64
NtRp2618
(dp2619
g67
(dp2620
sg76
g72
sg69
(lp2621
g62
(g83
g64
NtRp2622
(dp2623
g67
(dp2624
g87
g88
ssg76
g2618
sg69
(lp2625
S'now'
p2626
asbag62
(g83
g64
NtRp2627
(dp2628
g67
(dp2629
g94
g95
ssg76
g2618
sg69
(lp2630
S':'
asbag62
(g83
g64
NtRp2631
(dp2632
g67
(dp2633
sg76
g2618
sg69
(lp2634
g62
(g63
g64
NtRp2635
(dp2636
g67
(dp2637
g75
I5
ssg76
g2631
sg69
(lp2638
S'datetime.datetime(2012, 1, 23, 11, 27, 45, 615677)'
p2639
asbasbasbag62
(g78
g64
NtRp2640
(dp2641
g67
(dp2642
sg76
g72
sg69
(lp2643
g62
(g83
g64
NtRp2644
(dp2645
g67
(dp2646
g87
g88
ssg76
g2640
sg69
(lp2647
S'post_vars'
p2648
asbag62
(g83
g64
NtRp2649
(dp2650
g67
(dp2651
g94
g95
ssg76
g2640
sg69
(lp2652
S':'
asbag62
(g83
g64
NtRp2653
(dp2654
g67
(dp2655
sg76
g2640
sg69
(lp2656
g62
(g63
g64
NtRp2657
(dp2658
g67
(dp2659
g75
I5
ssg76
g2653
sg69
(lp2660
g62
(g71
g64
NtRp2661
(dp2662
g67
(dp2663
g75
I4
ssg76
Nsg69
(lp2664
sbasbasbasbag62
(g78
g64
NtRp2665
(dp2666
g67
(dp2667
sg76
g72
sg69
(lp2668
g62
(g83
g64
NtRp2669
(dp2670
g67
(dp2671
g87
g88
ssg76
g2665
sg69
(lp2672
S'url'
p2673
asbag62
(g83
g64
NtRp2674
(dp2675
g67
(dp2676
g94
g95
ssg76
g2665
sg69
(lp2677
S':'
asbag62
(g83
g64
NtRp2678
(dp2679
g67
(dp2680
sg76
g2665
sg69
(lp2681
g62
(g63
g64
NtRp2682
(dp2683
g67
(dp2684
g75
I5
ssg76
g2678
sg69
(lp2685
S'/eds/build/builddoc'
p2686
asbasbasbag62
(g78
g64
NtRp2687
(dp2688
g67
(dp2689
sg76
g72
sg69
(lp2690
g62
(g83
g64
NtRp2691
(dp2692
g67
(dp2693
g87
g88
ssg76
g2687
sg69
(lp2694
S'utcnow'
p2695
asbag62
(g83
g64
NtRp2696
(dp2697
g67
(dp2698
g94
g95
ssg76
g2687
sg69
(lp2699
S':'
asbag62
(g83
g64
NtRp2700
(dp2701
g67
(dp2702
sg76
g2687
sg69
(lp2703
g62
(g63
g64
NtRp2704
(dp2705
g67
(dp2706
g75
I5
ssg76
g2700
sg69
(lp2707
S'datetime.datetime(2012, 1, 23, 17, 27, 45, 615686)'
p2708
asbasbasbag62
(g78
g64
NtRp2709
(dp2710
g67
(dp2711
sg76
g72
sg69
(lp2712
g62
(g83
g64
NtRp2713
(dp2714
g67
(dp2715
g87
g88
ssg76
g2709
sg69
(lp2716
S'uuid'
p2717
asbag62
(g83
g64
NtRp2718
(dp2719
g67
(dp2720
g94
g95
ssg76
g2709
sg69
(lp2721
S':'
asbag62
(g83
g64
NtRp2722
(dp2723
g67
(dp2724
sg76
g2709
sg69
(lp2725
g62
(g63
g64
NtRp2726
(dp2727
g67
(dp2728
g75
I5
ssg76
g2722
sg69
(lp2729
S'eds/127.0.0.1.2012-01-23.11-27-45.e42cad65-7ef1-48e1-a81a-dbc86cbcf6a6'
p2730
asbasbasbag62
(g78
g64
NtRp2731
(dp2732
g67
(dp2733
sg76
g72
sg69
(lp2734
g62
(g83
g64
NtRp2735
(dp2736
g67
(dp2737
g87
g88
ssg76
g2731
sg69
(lp2738
S'vars'
p2739
asbag62
(g83
g64
NtRp2740
(dp2741
g67
(dp2742
g94
g95
ssg76
g2731
sg69
(lp2743
S':'
asbag62
(g83
g64
NtRp2744
(dp2745
g67
(dp2746
sg76
g2731
sg69
(lp2747
g62
(g63
g64
NtRp2748
(dp2749
g67
(dp2750
g75
I5
ssg76
g2744
sg69
(lp2751
g62
(g71
g64
NtRp2752
(dp2753
g67
(dp2754
g75
I4
ssg76
Nsg69
(lp2755
sbasbasbasbag62
(g78
g64
NtRp2756
(dp2757
g67
(dp2758
sg76
g72
sg69
(lp2759
g62
(g83
g64
NtRp2760
(dp2761
g67
(dp2762
g87
g88
ssg76
g2756
sg69
(lp2763
S'wsgi'
p2764
asbag62
(g83
g64
NtRp2765
(dp2766
g67
(dp2767
g94
g95
ssg76
g2756
sg69
(lp2768
S':'
asbag62
(g83
g64
NtRp2769
(dp2770
g67
(dp2771
sg76
g2756
sg69
(lp2772
g62
(g63
g64
NtRp2773
(dp2774
g67
(dp2775
g75
I5
ssg76
g2769
sg69
(lp2776
g62
(g71
g64
NtRp2777
(dp2778
g67
(dp2779
g75
I4
ssg76
Nsg69
(lp2780
g62
(g78
g64
NtRp2781
(dp2782
g67
(dp2783
sg76
g2777
sg69
(lp2784
g62
(g83
g64
NtRp2785
(dp2786
g67
(dp2787
g87
g88
ssg76
g2781
sg69
(lp2788
S'environ'
p2789
asbag62
(g83
g64
NtRp2790
(dp2791
g67
(dp2792
g94
g95
ssg76
g2781
sg69
(lp2793
S':'
asbag62
(g83
g64
NtRp2794
(dp2795
g67
(dp2796
sg76
g2781
sg69
(lp2797
g62
(g63
g64
NtRp2798
(dp2799
g67
(dp2800
g75
I4
ssg76
g2794
sg69
(lp2801
g62
(g71
g64
NtRp2802
(dp2803
g67
(dp2804
g75
I3
ssg76
Nsg69
(lp2805
g62
(g78
g64
NtRp2806
(dp2807
g67
(dp2808
sg76
g2802
sg69
(lp2809
g62
(g83
g64
NtRp2810
(dp2811
g67
(dp2812
g87
g88
ssg76
g2806
sg69
(lp2813
S'HTTP_ACCEPT'
p2814
asbag62
(g83
g64
NtRp2815
(dp2816
g67
(dp2817
g94
g95
ssg76
g2806
sg69
(lp2818
S':'
asbag62
(g83
g64
NtRp2819
(dp2820
g67
(dp2821
sg76
g2806
sg69
(lp2822
g62
(g63
g64
NtRp2823
(dp2824
g67
(dp2825
g75
I3
ssg76
g2819
sg69
(lp2826
g1378
asbasbasbag62
(g78
g64
NtRp2827
(dp2828
g67
(dp2829
sg76
g2802
sg69
(lp2830
g62
(g83
g64
NtRp2831
(dp2832
g67
(dp2833
g87
g88
ssg76
g2827
sg69
(lp2834
S'HTTP_ACCEPT_CHARSET'
p2835
asbag62
(g83
g64
NtRp2836
(dp2837
g67
(dp2838
g94
g95
ssg76
g2827
sg69
(lp2839
S':'
asbag62
(g83
g64
NtRp2840
(dp2841
g67
(dp2842
sg76
g2827
sg69
(lp2843
g62
(g63
g64
NtRp2844
(dp2845
g67
(dp2846
g75
I3
ssg76
g2840
sg69
(lp2847
g1400
asbasbasbag62
(g78
g64
NtRp2848
(dp2849
g67
(dp2850
sg76
g2802
sg69
(lp2851
g62
(g83
g64
NtRp2852
(dp2853
g67
(dp2854
g87
g88
ssg76
g2848
sg69
(lp2855
S'HTTP_ACCEPT_ENCODING'
p2856
asbag62
(g83
g64
NtRp2857
(dp2858
g67
(dp2859
g94
g95
ssg76
g2848
sg69
(lp2860
S':'
asbag62
(g83
g64
NtRp2861
(dp2862
g67
(dp2863
sg76
g2848
sg69
(lp2864
g62
(g63
g64
NtRp2865
(dp2866
g67
(dp2867
g75
I3
ssg76
g2861
sg69
(lp2868
g1422
asbasbasbag62
(g78
g64
NtRp2869
(dp2870
g67
(dp2871
sg76
g2802
sg69
(lp2872
g62
(g83
g64
NtRp2873
(dp2874
g67
(dp2875
g87
g88
ssg76
g2869
sg69
(lp2876
S'HTTP_ACCEPT_LANGUAGE'
p2877
asbag62
(g83
g64
NtRp2878
(dp2879
g67
(dp2880
g94
g95
ssg76
g2869
sg69
(lp2881
S':'
asbag62
(g83
g64
NtRp2882
(dp2883
g67
(dp2884
sg76
g2869
sg69
(lp2885
g62
(g63
g64
NtRp2886
(dp2887
g67
(dp2888
g75
I3
ssg76
g2882
sg69
(lp2889
g1444
asbasbasbag62
(g78
g64
NtRp2890
(dp2891
g67
(dp2892
sg76
g2802
sg69
(lp2893
g62
(g83
g64
NtRp2894
(dp2895
g67
(dp2896
g87
g88
ssg76
g2890
sg69
(lp2897
S'HTTP_CACHE_CONTROL'
p2898
asbag62
(g83
g64
NtRp2899
(dp2900
g67
(dp2901
g94
g95
ssg76
g2890
sg69
(lp2902
S':'
asbag62
(g83
g64
NtRp2903
(dp2904
g67
(dp2905
sg76
g2890
sg69
(lp2906
g62
(g63
g64
NtRp2907
(dp2908
g67
(dp2909
g75
I3
ssg76
g2903
sg69
(lp2910
g1466
asbasbasbag62
(g78
g64
NtRp2911
(dp2912
g67
(dp2913
sg76
g2802
sg69
(lp2914
g62
(g83
g64
NtRp2915
(dp2916
g67
(dp2917
g87
g88
ssg76
g2911
sg69
(lp2918
S'HTTP_CONNECTION'
p2919
asbag62
(g83
g64
NtRp2920
(dp2921
g67
(dp2922
g94
g95
ssg76
g2911
sg69
(lp2923
S':'
asbag62
(g83
g64
NtRp2924
(dp2925
g67
(dp2926
sg76
g2911
sg69
(lp2927
g62
(g63
g64
NtRp2928
(dp2929
g67
(dp2930
g75
I3
ssg76
g2924
sg69
(lp2931
g1488
asbasbasbag62
(g78
g64
NtRp2932
(dp2933
g67
(dp2934
sg76
g2802
sg69
(lp2935
g62
(g83
g64
NtRp2936
(dp2937
g67
(dp2938
g87
g88
ssg76
g2932
sg69
(lp2939
S'HTTP_COOKIE'
p2940
asbag62
(g83
g64
NtRp2941
(dp2942
g67
(dp2943
g94
g95
ssg76
g2932
sg69
(lp2944
S':'
asbag62
(g83
g64
NtRp2945
(dp2946
g67
(dp2947
sg76
g2932
sg69
(lp2948
g62
(g63
g64
NtRp2949
(dp2950
g67
(dp2951
g75
I3
ssg76
g2945
sg69
(lp2952
g1510
asbasbasbag62
(g78
g64
NtRp2953
(dp2954
g67
(dp2955
sg76
g2802
sg69
(lp2956
g62
(g83
g64
NtRp2957
(dp2958
g67
(dp2959
g87
g88
ssg76
g2953
sg69
(lp2960
S'HTTP_HOST'
p2961
asbag62
(g83
g64
NtRp2962
(dp2963
g67
(dp2964
g94
g95
ssg76
g2953
sg69
(lp2965
S':'
asbag62
(g83
g64
NtRp2966
(dp2967
g67
(dp2968
sg76
g2953
sg69
(lp2969
g62
(g63
g64
NtRp2970
(dp2971
g67
(dp2972
g75
I3
ssg76
g2966
sg69
(lp2973
g1532
asbasbasbag62
(g78
g64
NtRp2974
(dp2975
g67
(dp2976
sg76
g2802
sg69
(lp2977
g62
(g83
g64
NtRp2978
(dp2979
g67
(dp2980
g87
g88
ssg76
g2974
sg69
(lp2981
S'HTTP_USER_AGENT'
p2982
asbag62
(g83
g64
NtRp2983
(dp2984
g67
(dp2985
g94
g95
ssg76
g2974
sg69
(lp2986
S':'
asbag62
(g83
g64
NtRp2987
(dp2988
g67
(dp2989
sg76
g2974
sg69
(lp2990
g62
(g63
g64
NtRp2991
(dp2992
g67
(dp2993
g75
I3
ssg76
g2987
sg69
(lp2994
g1554
asbasbasbag62
(g78
g64
NtRp2995
(dp2996
g67
(dp2997
sg76
g2802
sg69
(lp2998
g62
(g83
g64
NtRp2999
(dp3000
g67
(dp3001
g87
g88
ssg76
g2995
sg69
(lp3002
S'PATH_INFO'
p3003
asbag62
(g83
g64
NtRp3004
(dp3005
g67
(dp3006
g94
g95
ssg76
g2995
sg69
(lp3007
S':'
asbag62
(g83
g64
NtRp3008
(dp3009
g67
(dp3010
sg76
g2995
sg69
(lp3011
g62
(g63
g64
NtRp3012
(dp3013
g67
(dp3014
g75
I3
ssg76
g3008
sg69
(lp3015
g1618
asbasbasbag62
(g78
g64
NtRp3016
(dp3017
g67
(dp3018
sg76
g2802
sg69
(lp3019
g62
(g83
g64
NtRp3020
(dp3021
g67
(dp3022
g87
g88
ssg76
g3016
sg69
(lp3023
S'QUERY_STRING'
p3024
asbag62
(g83
g64
NtRp3025
(dp3026
g67
(dp3027
g94
g95
ssg76
g3016
sg69
(lp3028
S':'
asbag62
(g83
g64
NtRp3029
(dp3030
g67
(dp3031
sg76
g3016
sg69
(lp3032
g62
(g63
g64
NtRp3033
(dp3034
g67
(dp3035
g75
I3
ssg76
g3029
sg69
(lp3036
S''
asbasbasbag62
(g78
g64
NtRp3037
(dp3038
g67
(dp3039
sg76
g2802
sg69
(lp3040
g62
(g83
g64
NtRp3041
(dp3042
g67
(dp3043
g87
g88
ssg76
g3037
sg69
(lp3044
S'REMOTE_ADDR'
p3045
asbag62
(g83
g64
NtRp3046
(dp3047
g67
(dp3048
g94
g95
ssg76
g3037
sg69
(lp3049
S':'
asbag62
(g83
g64
NtRp3050
(dp3051
g67
(dp3052
sg76
g3037
sg69
(lp3053
g62
(g63
g64
NtRp3054
(dp3055
g67
(dp3056
g75
I3
ssg76
g3050
sg69
(lp3057
g195
asbasbasbag62
(g78
g64
NtRp3058
(dp3059
g67
(dp3060
sg76
g2802
sg69
(lp3061
g62
(g83
g64
NtRp3062
(dp3063
g67
(dp3064
g87
g88
ssg76
g3058
sg69
(lp3065
S'REMOTE_PORT'
p3066
asbag62
(g83
g64
NtRp3067
(dp3068
g67
(dp3069
g94
g95
ssg76
g3058
sg69
(lp3070
S':'
asbag62
(g83
g64
NtRp3071
(dp3072
g67
(dp3073
sg76
g3058
sg69
(lp3074
g62
(g63
g64
NtRp3075
(dp3076
g67
(dp3077
g75
I3
ssg76
g3071
sg69
(lp3078
g1682
asbasbasbag62
(g78
g64
NtRp3079
(dp3080
g67
(dp3081
sg76
g2802
sg69
(lp3082
g62
(g83
g64
NtRp3083
(dp3084
g67
(dp3085
g87
g88
ssg76
g3079
sg69
(lp3086
S'REQUEST_METHOD'
p3087
asbag62
(g83
g64
NtRp3088
(dp3089
g67
(dp3090
g94
g95
ssg76
g3079
sg69
(lp3091
S':'
asbag62
(g83
g64
NtRp3092
(dp3093
g67
(dp3094
sg76
g3079
sg69
(lp3095
g62
(g63
g64
NtRp3096
(dp3097
g67
(dp3098
g75
I3
ssg76
g3092
sg69
(lp3099
g1704
asbasbasbag62
(g78
g64
NtRp3100
(dp3101
g67
(dp3102
sg76
g2802
sg69
(lp3103
g62
(g83
g64
NtRp3104
(dp3105
g67
(dp3106
g87
g88
ssg76
g3100
sg69
(lp3107
S'SCRIPT_NAME'
p3108
asbag62
(g83
g64
NtRp3109
(dp3110
g67
(dp3111
g94
g95
ssg76
g3100
sg69
(lp3112
S':'
asbag62
(g83
g64
NtRp3113
(dp3114
g67
(dp3115
sg76
g3100
sg69
(lp3116
g62
(g63
g64
NtRp3117
(dp3118
g67
(dp3119
g75
I3
ssg76
g3113
sg69
(lp3120
S''
asbasbasbag62
(g78
g64
NtRp3121
(dp3122
g67
(dp3123
sg76
g2802
sg69
(lp3124
g62
(g83
g64
NtRp3125
(dp3126
g67
(dp3127
g87
g88
ssg76
g3121
sg69
(lp3128
S'SERVER_NAME'
p3129
asbag62
(g83
g64
NtRp3130
(dp3131
g67
(dp3132
g94
g95
ssg76
g3121
sg69
(lp3133
S':'
asbag62
(g83
g64
NtRp3134
(dp3135
g67
(dp3136
sg76
g3121
sg69
(lp3137
g62
(g63
g64
NtRp3138
(dp3139
g67
(dp3140
g75
I3
ssg76
g3134
sg69
(lp3141
g1747
asbasbasbag62
(g78
g64
NtRp3142
(dp3143
g67
(dp3144
sg76
g2802
sg69
(lp3145
g62
(g83
g64
NtRp3146
(dp3147
g67
(dp3148
g87
g88
ssg76
g3142
sg69
(lp3149
S'SERVER_PORT'
p3150
asbag62
(g83
g64
NtRp3151
(dp3152
g67
(dp3153
g94
g95
ssg76
g3142
sg69
(lp3154
S':'
asbag62
(g83
g64
NtRp3155
(dp3156
g67
(dp3157
sg76
g3142
sg69
(lp3158
g62
(g63
g64
NtRp3159
(dp3160
g67
(dp3161
g75
I3
ssg76
g3155
sg69
(lp3162
g1769
asbasbasbag62
(g78
g64
NtRp3163
(dp3164
g67
(dp3165
sg76
g2802
sg69
(lp3166
g62
(g83
g64
NtRp3167
(dp3168
g67
(dp3169
g87
g88
ssg76
g3163
sg69
(lp3170
S'SERVER_PROTOCOL'
p3171
asbag62
(g83
g64
NtRp3172
(dp3173
g67
(dp3174
g94
g95
ssg76
g3163
sg69
(lp3175
S':'
asbag62
(g83
g64
NtRp3176
(dp3177
g67
(dp3178
sg76
g3163
sg69
(lp3179
g62
(g63
g64
NtRp3180
(dp3181
g67
(dp3182
g75
I3
ssg76
g3176
sg69
(lp3183
g1791
asbasbasbag62
(g78
g64
NtRp3184
(dp3185
g67
(dp3186
sg76
g2802
sg69
(lp3187
g62
(g83
g64
NtRp3188
(dp3189
g67
(dp3190
g87
g88
ssg76
g3184
sg69
(lp3191
S'SERVER_SOFTWARE'
p3192
asbag62
(g83
g64
NtRp3193
(dp3194
g67
(dp3195
g94
g95
ssg76
g3184
sg69
(lp3196
S':'
asbag62
(g83
g64
NtRp3197
(dp3198
g67
(dp3199
sg76
g3184
sg69
(lp3200
g62
(g63
g64
NtRp3201
(dp3202
g67
(dp3203
g75
I3
ssg76
g3197
sg69
(lp3204
g1813
asbasbasbag62
(g78
g64
NtRp3205
(dp3206
g67
(dp3207
sg76
g2802
sg69
(lp3208
g62
(g83
g64
NtRp3209
(dp3210
g67
(dp3211
g87
g88
ssg76
g3205
sg69
(lp3212
S'wsgi.errors'
p3213
asbag62
(g83
g64
NtRp3214
(dp3215
g67
(dp3216
g94
g95
ssg76
g3205
sg69
(lp3217
S':'
asbag62
(g83
g64
NtRp3218
(dp3219
g67
(dp3220
sg76
g3205
sg69
(lp3221
g62
(g63
g64
NtRp3222
(dp3223
g67
(dp3224
g75
I3
ssg76
g3218
sg69
(lp3225
S"<open file '<stderr>', mode 'w' at 0x10403c270>"
p3226
asbasbasbag62
(g78
g64
NtRp3227
(dp3228
g67
(dp3229
sg76
g2802
sg69
(lp3230
g62
(g83
g64
NtRp3231
(dp3232
g67
(dp3233
g87
g88
ssg76
g3227
sg69
(lp3234
S'wsgi.file_wrapper'
p3235
asbag62
(g83
g64
NtRp3236
(dp3237
g67
(dp3238
g94
g95
ssg76
g3227
sg69
(lp3239
S':'
asbag62
(g83
g64
NtRp3240
(dp3241
g67
(dp3242
sg76
g3227
sg69
(lp3243
g62
(g63
g64
NtRp3244
(dp3245
g67
(dp3246
g75
I3
ssg76
g3240
sg69
(lp3247
S'<class wsgiref.util.FileWrapper at 0x1049f1598>'
p3248
asbasbasbag62
(g78
g64
NtRp3249
(dp3250
g67
(dp3251
sg76
g2802
sg69
(lp3252
g62
(g83
g64
NtRp3253
(dp3254
g67
(dp3255
g87
g88
ssg76
g3249
sg69
(lp3256
S'wsgi.input'
p3257
asbag62
(g83
g64
NtRp3258
(dp3259
g67
(dp3260
g94
g95
ssg76
g3249
sg69
(lp3261
S':'
asbag62
(g83
g64
NtRp3262
(dp3263
g67
(dp3264
sg76
g3249
sg69
(lp3265
g62
(g63
g64
NtRp3266
(dp3267
g67
(dp3268
g75
I3
ssg76
g3262
sg69
(lp3269
S'<cStringIO.StringO object at 0x109552ea0>'
p3270
asbasbasbag62
(g78
g64
NtRp3271
(dp3272
g67
(dp3273
sg76
g2802
sg69
(lp3274
g62
(g83
g64
NtRp3275
(dp3276
g67
(dp3277
g87
g88
ssg76
g3271
sg69
(lp3278
S'wsgi.multiprocess'
p3279
asbag62
(g83
g64
NtRp3280
(dp3281
g67
(dp3282
g94
g95
ssg76
g3271
sg69
(lp3283
S':'
asbag62
(g83
g64
NtRp3284
(dp3285
g67
(dp3286
sg76
g3271
sg69
(lp3287
g62
(g63
g64
NtRp3288
(dp3289
g67
(dp3290
g75
I3
ssg76
g3284
sg69
(lp3291
g105
asbasbasbag62
(g78
g64
NtRp3292
(dp3293
g67
(dp3294
sg76
g2802
sg69
(lp3295
g62
(g83
g64
NtRp3296
(dp3297
g67
(dp3298
g87
g88
ssg76
g3292
sg69
(lp3299
S'wsgi.multithread'
p3300
asbag62
(g83
g64
NtRp3301
(dp3302
g67
(dp3303
g94
g95
ssg76
g3292
sg69
(lp3304
S':'
asbag62
(g83
g64
NtRp3305
(dp3306
g67
(dp3307
sg76
g3292
sg69
(lp3308
g62
(g63
g64
NtRp3309
(dp3310
g67
(dp3311
g75
I3
ssg76
g3305
sg69
(lp3312
g2053
asbasbasbag62
(g78
g64
NtRp3313
(dp3314
g67
(dp3315
sg76
g2802
sg69
(lp3316
g62
(g83
g64
NtRp3317
(dp3318
g67
(dp3319
g87
g88
ssg76
g3313
sg69
(lp3320
S'wsgi.run_once'
p3321
asbag62
(g83
g64
NtRp3322
(dp3323
g67
(dp3324
g94
g95
ssg76
g3313
sg69
(lp3325
S':'
asbag62
(g83
g64
NtRp3326
(dp3327
g67
(dp3328
sg76
g3313
sg69
(lp3329
g62
(g63
g64
NtRp3330
(dp3331
g67
(dp3332
g75
I3
ssg76
g3326
sg69
(lp3333
g105
asbasbasbag62
(g78
g64
NtRp3334
(dp3335
g67
(dp3336
sg76
g2802
sg69
(lp3337
g62
(g83
g64
NtRp3338
(dp3339
g67
(dp3340
g87
g88
ssg76
g3334
sg69
(lp3341
S'wsgi.url_scheme'
p3342
asbag62
(g83
g64
NtRp3343
(dp3344
g67
(dp3345
g94
g95
ssg76
g3334
sg69
(lp3346
S':'
asbag62
(g83
g64
NtRp3347
(dp3348
g67
(dp3349
sg76
g3334
sg69
(lp3350
g62
(g63
g64
NtRp3351
(dp3352
g67
(dp3353
g75
I3
ssg76
g3347
sg69
(lp3354
g2096
asbasbasbag62
(g78
g64
NtRp3355
(dp3356
g67
(dp3357
sg76
g2802
sg69
(lp3358
g62
(g83
g64
NtRp3359
(dp3360
g67
(dp3361
g87
g88
ssg76
g3355
sg69
(lp3362
S'wsgi.version'
p3363
asbag62
(g83
g64
NtRp3364
(dp3365
g67
(dp3366
g94
g95
ssg76
g3355
sg69
(lp3367
S':'
asbag62
(g83
g64
NtRp3368
(dp3369
g67
(dp3370
sg76
g3355
sg69
(lp3371
g62
(g63
g64
NtRp3372
(dp3373
g67
(dp3374
g75
I3
ssg76
g3368
sg69
(lp3375
S'1'
asbasbasbasbasbasbasbasbasbasbasbasbasbsS'frames'
p3376
(lp3377
(dp3378
S'file'
p3379
S'/Users/bmiller/src/eds/gluon/restricted.py'
p3380
sS'dump'
p3381
(dp3382
S'environment'
p3383
S"{'A': <class 'gluon.html.A'>, 'Auth': <class 'gluon.tools.Auth'>, 'B': <class 'gluon.html.B'>, 'BEAUTIFY': <class 'gluon.html.BEAUTIFY'>, 'BODY': <class 'gluon.html.BODY'>, 'BR': <class 'gluon.html.BR'>, 'BUTTON': <class 'gluon.html.BUTTON'>, 'CAT': <class 'gluon.html.CAT'>, 'CENTER': <class 'gluon.html.CENTER'>, 'CLEANUP': <class 'gluon.validators.CLEANUP'>, ...}"
p3384
sS'ccode'
p3385
S'<code object <module> at 0x10953c8b0, file "/Use...s/applications/eds/controllers/build.py", line 1>'
p3386
ssS'lnum'
p3387
I204
sS'lines'
p3388
(dp3389
I199
S'    try:'
p3390
sI200
S'        if type(code) == types.CodeType:'
p3391
sI201
S'            ccode = code'
p3392
sI202
S'        else:'
p3393
sI203
S'            ccode = compile2(code,layer)'
p3394
sI204
S'        exec ccode in environment'
p3395
sI205
S'    except HTTP:'
p3396
sI206
S'        raise'
p3397
sI207
S'    except RestrictedError:'
p3398
sI208
S'        # do not encapsulate (obfuscate) the original RestrictedError'
p3399
ssS'call'
p3400
S'(code="from sphinx.websupport import WebSupport\\nimport ...ess\'\\n\\n\\nresponse._vars=response._caller(builddoc)\\n", environment={\'A\': <class \'gluon.html.A\'>, \'Auth\': <class \'gluon.tools.Auth\'>, \'B\': <class \'gluon.html.B\'>, \'BEAUTIFY\': <class \'gluon.html.BEAUTIFY\'>, \'BODY\': <class \'gluon.html.BODY\'>, \'BR\': <class \'gluon.html.BR\'>, \'BUTTON\': <class \'gluon.html.BUTTON\'>, \'CAT\': <class \'gluon.html.CAT\'>, \'CENTER\': <class \'gluon.html.CENTER\'>, \'CLEANUP\': <class \'gluon.validators.CLEANUP\'>, ...}, layer=\'/Users/bmiller/src/eds/applications/eds/controllers/build.py\')'
p3401
sS'func'
p3402
S'restricted'
p3403
sa(dp3404
g3379
S'/Users/bmiller/src/eds/applications/eds/controllers/build.py'
p3405
sg3381
(dp3406
sg3387
I11
sg3388
(dp3407
I1
S'from sphinx.websupport import WebSupport'
p3408
sI2
S'import json'
p3409
sI3
S''
sI4
S''
sI5
S'def builddoc():'
p3410
sI6
S"    support = WebSupport(srcdir='/Users/bmiller/src/eds/applications/eds/source',builddir='/Users/bmiller/src/eds/applications/eds/static',docroot='chapter')"
p3411
sI7
S'    support.build()'
p3412
sI8
S"    return 'Success'"
p3413
sI9
S''
ssg3400
S'()'
p3414
sg3402
S'<module>'
p3415
sa(dp3416
g3379
S'/Users/bmiller/src/eds/gluon/globals.py'
p3417
sg3381
(dp3418
S'self'
p3419
S'undefined'
p3420
sS'f'
S'<function builddoc>'
p3421
ssg3387
I172
sg3388
(dp3422
I167
S'        self.meta = Storage()      # used by web2py_ajax.html'
p3423
sI168
S'        self.menu = []             # used by the default view layout'
p3424
sI169
S'        self.files = []            # used by web2py_ajax.html'
p3425
sI170
S'        self.generic_patterns = [] # patterns to allow generic views'
p3426
sI171
S'        self._vars = None'
p3427
sI172
S'        self._caller = lambda f: f()'
p3428
sI173
S'        self._view_environment = None'
p3429
sI174
S'        self._custom_commit = None'
p3430
sI175
S'        self._custom_rollback = None'
p3431
sI176
S''
ssg3400
S'(f=<function builddoc>)'
p3432
sg3402
S'<lambda>'
p3433
sa(dp3434
g3379
S'/Users/bmiller/src/eds/applications/eds/controllers/build.py'
p3435
sg3381
(dp3436
S'support'
p3437
S'<sphinx.websupport.WebSupport object>'
p3438
sS'support.build'
p3439
S'<bound method WebSupport.build of <sphinx.websupport.WebSupport object>>'
p3440
ssg3387
I7
sg3388
(dp3441
I1
S'from sphinx.websupport import WebSupport'
p3442
sI2
S'import json'
p3443
sI3
S''
sI4
S''
sI5
S'def builddoc():'
p3444
sI6
S"    support = WebSupport(srcdir='/Users/bmiller/src/eds/applications/eds/source',builddir='/Users/bmiller/src/eds/applications/eds/static',docroot='chapter')"
p3445
sI7
S'    support.build()'
p3446
sI8
S"    return 'Success'"
p3447
sI9
S''
ssg3400
S'()'
p3448
sg3402
S'builddoc'
p3449
sa(dp3450
g3379
S'/Library/Python/2.7/site-packages/Sphinx-1.1.2-py2.7.egg/sphinx/websupport/__init__.py'
p3451
sg3381
(dp3452
S'status'
p3453
g3420
sS'self.status'
p3454
S"<open file '<stdout>', mode 'w'>"
p3455
sS'self'
p3456
S'<sphinx.websupport.WebSupport object>'
p3457
sS'warning'
p3458
g3420
sS'self.warning'
p3459
S"<open file '<stderr>', mode 'w'>"
p3460
ssg3387
I121
sg3388
(dp3461
I116
S'        It will also save node data to the database.'
p3462
sI117
S'        """'
p3463
sI118
S'        if not self.srcdir:'
p3464
sI119
S"            raise RuntimeError('No srcdir associated with WebSupport object')"
p3465
sI120
S'        app = Sphinx(self.srcdir, self.srcdir, self.outdir, self.doctreedir,'
p3466
sI121
S"                     'websupport', status=self.status, warning=self.warning)"
p3467
sI122
S'        app.builder.set_webinfo(self.staticdir, self.staticroot,'
p3468
sI123
S'                                self.search, self.storage)'
p3469
sI124
S''
sI125
S'        self.storage.pre_build()'
p3470
ssg3400
S'(self=<sphinx.websupport.WebSupport object>)'
p3471
sg3402
S'build'
p3472
sa(dp3473
g3379
S'/Library/Python/2.7/site-packages/Sphinx-1.1.2-py2.7.egg/sphinx/application.py'
p3474
sg3381
(dp3475
S'confoverrides'
p3476
S'None'
p3477
sS'self'
p3478
S'<sphinx.application.Sphinx object>'
p3479
sS'self.tags'
p3480
S'<sphinx.util.tags.Tags object>'
p3481
ssg3387
I102
sg3388
(dp3482
I97
S'        self.statuscode = 0'
p3483
sI98
S''
sI99
S'        # read config'
p3484
sI100
S'        self.tags = Tags(tags)'
p3485
sI101
S'        self.config = Config(confdir, CONFIG_FILENAME,'
p3486
sI102
S'                             confoverrides or {}, self.tags)'
p3487
sI103
S'        self.config.check_unicode(self.warn)'
p3488
sI104
S''
sI105
S'        # set confdir to srcdir if -C given (!= no confdir); a few pieces'
p3489
sI106
S'        # of code expect a confdir to be set'
p3490
ssg3400
S"(self=<sphinx.application.Sphinx object>, srcdir='/Users/bmiller/src/eds/applications/eds/source', confdir='/Users/bmiller/src/eds/applications/eds/source', outdir='/Users/bmiller/src/eds/applications/eds/static/data', doctreedir='/Users/bmiller/src/eds/applications/eds/static/doctrees', buildername='websupport', confoverrides=None, status=<open file '<stdout>', mode 'w'>, warning=<open file '<stderr>', mode 'w'>, freshenv=False, warningiserror=False, tags=None)"
p3491
sg3402
g22
sa(dp3492
g3379
S'/Library/Python/2.7/site-packages/Sphinx-1.1.2-py2.7.egg/sphinx/config.py'
p3493
sg3381
(dp3494
S'os.chdir'
p3495
S'<built-in function chdir>'
p3496
sS'dirname'
p3497
S"'/Users/bmiller/src/eds/applications/eds/source'"
p3498
sS'global os'
p3499
S"<module 'os' from '/System/Library/Frameworks/Python.framework/Versions/2.7/lib/python2.7/os.pyc'>"
p3500
ssg3387
I196
sg3388
(dp3501
I192
S'            olddir = os.getcwd()'
p3502
sI193
S'            try:'
p3503
sI194
S'                # we promise to have the config dir as current dir while the'
p3504
sI195
S'                # config file is executed'
p3505
sI196
S'                os.chdir(dirname)'
p3506
sI197
S'                # get config source'
p3507
sI198
S"                f = open(config_file, 'rU')"
p3508
sI199
S'                try:'
p3509
sI200
S'                    source = f.read()'
p3510
sI191
S"            config['tags'] = tags"
p3511
ssg3400
S"(self=<sphinx.config.Config object>, dirname='/Users/bmiller/src/eds/applications/eds/source', filename='conf.py', overrides={}, tags=<sphinx.util.tags.Tags object>)"
p3512
sg3402
g22
sasS'pyver'
p3513
S'Python 2.7.1: /usr/bin/python'
p3514
sS'session'
p3515
g62
(g63
g64
NtRp3516
(dp3517
g67
(dp3518
sg69
(lp3519
g62
(g71
g64
NtRp3520
(dp3521
g67
(dp3522
g75
I5
ssg76
Nsg69
(lp3523
sbasbsS'etype'
p3524
S"<type 'exceptions.OSError'>"
p3525
sS'date'
p3526
S'Mon Jan 23 11:27:46 2012'
p3527
sS'response'
p3528
g62
(g63
g64
NtRp3529
(dp3530
g67
(dp3531
sg69
(lp3532
g62
(g71
g64
NtRp3533
(dp3534
g67
(dp3535
g75
I5
ssg76
Nsg69
(lp3536
g62
(g78
g64
NtRp3537
(dp3538
g67
(dp3539
sg76
g3533
sg69
(lp3540
g62
(g83
g64
NtRp3541
(dp3542
g67
(dp3543
g87
g88
ssg76
g3537
sg69
(lp3544
g160
asbag62
(g83
g64
NtRp3545
(dp3546
g67
(dp3547
g94
g95
ssg76
g3537
sg69
(lp3548
S':'
asbag62
(g83
g64
NtRp3549
(dp3550
g67
(dp3551
sg76
g3537
sg69
(lp3552
g62
(g63
g64
NtRp3553
(dp3554
g67
(dp3555
g75
I5
ssg76
g3549
sg69
(lp3556
S'<cStringIO.StringO object at 0x1089d4148>'
p3557
asbasbasbag62
(g78
g64
NtRp3558
(dp3559
g67
(dp3560
sg76
g3533
sg69
(lp3561
g62
(g83
g64
NtRp3562
(dp3563
g67
(dp3564
g87
g88
ssg76
g3558
sg69
(lp3565
g226
asbag62
(g83
g64
NtRp3566
(dp3567
g67
(dp3568
g94
g95
ssg76
g3558
sg69
(lp3569
S':'
asbag62
(g83
g64
NtRp3570
(dp3571
g67
(dp3572
sg76
g3558
sg69
(lp3573
g62
(g63
g64
NtRp3574
(dp3575
g67
(dp3576
g75
I5
ssg76
g3570
sg69
(lp3577
g62
(g71
g64
NtRp3578
(dp3579
g67
(dp3580
g75
I4
ssg76
Nsg69
(lp3581
g62
(g78
g64
NtRp3582
(dp3583
g67
(dp3584
sg76
g3578
sg69
(lp3585
g62
(g83
g64
NtRp3586
(dp3587
g67
(dp3588
g87
g88
ssg76
g3582
sg69
(lp3589
S'session_id_eds'
p3590
asbag62
(g83
g64
NtRp3591
(dp3592
g67
(dp3593
g94
g95
ssg76
g3582
sg69
(lp3594
S':'
asbag62
(g83
g64
NtRp3595
(dp3596
g67
(dp3597
sg76
g3582
sg69
(lp3598
g62
(g63
g64
NtRp3599
(dp3600
g67
(dp3601
g75
I4
ssg76
g3595
sg69
(lp3602
g62
(g71
g64
NtRp3603
(dp3604
g67
(dp3605
g75
I3
ssg76
Nsg69
(lp3606
g62
(g78
g64
NtRp3607
(dp3608
g67
(dp3609
sg76
g3603
sg69
(lp3610
g62
(g83
g64
NtRp3611
(dp3612
g67
(dp3613
g87
g88
ssg76
g3607
sg69
(lp3614
g276
asbag62
(g83
g64
NtRp3615
(dp3616
g67
(dp3617
g94
g95
ssg76
g3607
sg69
(lp3618
S':'
asbag62
(g83
g64
NtRp3619
(dp3620
g67
(dp3621
sg76
g3607
sg69
(lp3622
g62
(g63
g64
NtRp3623
(dp3624
g67
(dp3625
g75
I3
ssg76
g3619
sg69
(lp3626
S''
asbasbasbag62
(g78
g64
NtRp3627
(dp3628
g67
(dp3629
sg76
g3603
sg69
(lp3630
g62
(g83
g64
NtRp3631
(dp3632
g67
(dp3633
g87
g88
ssg76
g3627
sg69
(lp3634
g297
asbag62
(g83
g64
NtRp3635
(dp3636
g67
(dp3637
g94
g95
ssg76
g3627
sg69
(lp3638
S':'
asbag62
(g83
g64
NtRp3639
(dp3640
g67
(dp3641
sg76
g3627
sg69
(lp3642
g62
(g63
g64
NtRp3643
(dp3644
g67
(dp3645
g75
I3
ssg76
g3639
sg69
(lp3646
S''
asbasbasbag62
(g78
g64
NtRp3647
(dp3648
g67
(dp3649
sg76
g3603
sg69
(lp3650
g62
(g83
g64
NtRp3651
(dp3652
g67
(dp3653
g87
g88
ssg76
g3647
sg69
(lp3654
g318
asbag62
(g83
g64
NtRp3655
(dp3656
g67
(dp3657
g94
g95
ssg76
g3647
sg69
(lp3658
S':'
asbag62
(g83
g64
NtRp3659
(dp3660
g67
(dp3661
sg76
g3647
sg69
(lp3662
g62
(g63
g64
NtRp3663
(dp3664
g67
(dp3665
g75
I3
ssg76
g3659
sg69
(lp3666
S''
asbasbasbag62
(g78
g64
NtRp3667
(dp3668
g67
(dp3669
sg76
g3603
sg69
(lp3670
g62
(g83
g64
NtRp3671
(dp3672
g67
(dp3673
g87
g88
ssg76
g3667
sg69
(lp3674
g339
asbag62
(g83
g64
NtRp3675
(dp3676
g67
(dp3677
g94
g95
ssg76
g3667
sg69
(lp3678
S':'
asbag62
(g83
g64
NtRp3679
(dp3680
g67
(dp3681
sg76
g3667
sg69
(lp3682
g62
(g63
g64
NtRp3683
(dp3684
g67
(dp3685
g75
I3
ssg76
g3679
sg69
(lp3686
S''
asbasbasbag62
(g78
g64
NtRp3687
(dp3688
g67
(dp3689
sg76
g3603
sg69
(lp3690
g62
(g83
g64
NtRp3691
(dp3692
g67
(dp3693
g87
g88
ssg76
g3687
sg69
(lp3694
g360
asbag62
(g83
g64
NtRp3695
(dp3696
g67
(dp3697
g94
g95
ssg76
g3687
sg69
(lp3698
S':'
asbag62
(g83
g64
NtRp3699
(dp3700
g67
(dp3701
sg76
g3687
sg69
(lp3702
g62
(g63
g64
NtRp3703
(dp3704
g67
(dp3705
g75
I3
ssg76
g3699
sg69
(lp3706
S''
asbasbasbag62
(g78
g64
NtRp3707
(dp3708
g67
(dp3709
sg76
g3603
sg69
(lp3710
g62
(g83
g64
NtRp3711
(dp3712
g67
(dp3713
g87
g88
ssg76
g3707
sg69
(lp3714
g381
asbag62
(g83
g64
NtRp3715
(dp3716
g67
(dp3717
g94
g95
ssg76
g3707
sg69
(lp3718
S':'
asbag62
(g83
g64
NtRp3719
(dp3720
g67
(dp3721
sg76
g3707
sg69
(lp3722
g62
(g63
g64
NtRp3723
(dp3724
g67
(dp3725
g75
I3
ssg76
g3719
sg69
(lp3726
S'/'
asbasbasbag62
(g78
g64
NtRp3727
(dp3728
g67
(dp3729
sg76
g3603
sg69
(lp3730
g62
(g83
g64
NtRp3731
(dp3732
g67
(dp3733
g87
g88
ssg76
g3727
sg69
(lp3734
g402
asbag62
(g83
g64
NtRp3735
(dp3736
g67
(dp3737
g94
g95
ssg76
g3727
sg69
(lp3738
S':'
asbag62
(g83
g64
NtRp3739
(dp3740
g67
(dp3741
sg76
g3727
sg69
(lp3742
g62
(g63
g64
NtRp3743
(dp3744
g67
(dp3745
g75
I3
ssg76
g3739
sg69
(lp3746
S''
asbasbasbag62
(g78
g64
NtRp3747
(dp3748
g67
(dp3749
sg76
g3603
sg69
(lp3750
g62
(g83
g64
NtRp3751
(dp3752
g67
(dp3753
g87
g88
ssg76
g3747
sg69
(lp3754
g423
asbag62
(g83
g64
NtRp3755
(dp3756
g67
(dp3757
g94
g95
ssg76
g3747
sg69
(lp3758
S':'
asbag62
(g83
g64
NtRp3759
(dp3760
g67
(dp3761
sg76
g3747
sg69
(lp3762
g62
(g63
g64
NtRp3763
(dp3764
g67
(dp3765
g75
I3
ssg76
g3759
sg69
(lp3766
S''
asbasbasbasbasbasbasbasbasbasbasbag62
(g78
g64
NtRp3767
(dp3768
g67
(dp3769
sg76
g3533
sg69
(lp3770
g62
(g83
g64
NtRp3771
(dp3772
g67
(dp3773
g87
g88
ssg76
g3767
sg69
(lp3774
S'files'
p3775
asbag62
(g83
g64
NtRp3776
(dp3777
g67
(dp3778
g94
g95
ssg76
g3767
sg69
(lp3779
S':'
asbag62
(g83
g64
NtRp3780
(dp3781
g67
(dp3782
sg76
g3767
sg69
(lp3783
g62
(g63
g64
NtRp3784
(dp3785
g67
(dp3786
g75
I5
ssg76
g3780
sg69
(lp3787
g62
(g71
g64
NtRp3788
(dp3789
g67
(dp3790
g75
I4
ssg76
Nsg69
(lp3791
sbasbasbasbag62
(g78
g64
NtRp3792
(dp3793
g67
(dp3794
sg76
g3533
sg69
(lp3795
g62
(g83
g64
NtRp3796
(dp3797
g67
(dp3798
g87
g88
ssg76
g3792
sg69
(lp3799
S'flash'
p3800
asbag62
(g83
g64
NtRp3801
(dp3802
g67
(dp3803
g94
g95
ssg76
g3792
sg69
(lp3804
S':'
asbag62
(g83
g64
NtRp3805
(dp3806
g67
(dp3807
sg76
g3792
sg69
(lp3808
g62
(g63
g64
NtRp3809
(dp3810
g67
(dp3811
g75
I5
ssg76
g3805
sg69
(lp3812
S''
asbasbasbag62
(g78
g64
NtRp3813
(dp3814
g67
(dp3815
sg76
g3533
sg69
(lp3816
g62
(g83
g64
NtRp3817
(dp3818
g67
(dp3819
g87
g88
ssg76
g3813
sg69
(lp3820
S'generic_patterns'
p3821
asbag62
(g83
g64
NtRp3822
(dp3823
g67
(dp3824
g94
g95
ssg76
g3813
sg69
(lp3825
S':'
asbag62
(g83
g64
NtRp3826
(dp3827
g67
(dp3828
sg76
g3813
sg69
(lp3829
g62
(g63
g64
NtRp3830
(dp3831
g67
(dp3832
g75
I5
ssg76
g3826
sg69
(lp3833
g62
(g71
g64
NtRp3834
(dp3835
g67
(dp3836
g75
I4
ssg76
Nsg69
(lp3837
g62
(g78
g64
NtRp3838
(dp3839
g67
(dp3840
sg76
g3834
sg69
(lp3841
g62
(g83
g64
NtRp3842
(dp3843
g67
(dp3844
sg76
g3838
sg69
(lp3845
g62
(g63
g64
NtRp3846
(dp3847
g67
(dp3848
g75
I4
ssg76
g3842
sg69
(lp3849
S'*'
asbasbasbasbasbasbasbag62
(g78
g64
NtRp3850
(dp3851
g67
(dp3852
sg76
g3533
sg69
(lp3853
g62
(g83
g64
NtRp3854
(dp3855
g67
(dp3856
g87
g88
ssg76
g3850
sg69
(lp3857
S'headers'
p3858
asbag62
(g83
g64
NtRp3859
(dp3860
g67
(dp3861
g94
g95
ssg76
g3850
sg69
(lp3862
S':'
asbag62
(g83
g64
NtRp3863
(dp3864
g67
(dp3865
sg76
g3850
sg69
(lp3866
g62
(g63
g64
NtRp3867
(dp3868
g67
(dp3869
g75
I5
ssg76
g3863
sg69
(lp3870
g62
(g71
g64
NtRp3871
(dp3872
g67
(dp3873
g75
I4
ssg76
Nsg69
(lp3874
g62
(g78
g64
NtRp3875
(dp3876
g67
(dp3877
sg76
g3871
sg69
(lp3878
g62
(g83
g64
NtRp3879
(dp3880
g67
(dp3881
g87
g88
ssg76
g3875
sg69
(lp3882
S'Cache-Control'
p3883
asbag62
(g83
g64
NtRp3884
(dp3885
g67
(dp3886
g94
g95
ssg76
g3875
sg69
(lp3887
S':'
asbag62
(g83
g64
NtRp3888
(dp3889
g67
(dp3890
sg76
g3875
sg69
(lp3891
g62
(g63
g64
NtRp3892
(dp3893
g67
(dp3894
g75
I4
ssg76
g3888
sg69
(lp3895
S'no-store, no-cache, must-revalidate, post-check=0, pre-check=0'
p3896
asbasbasbag62
(g78
g64
NtRp3897
(dp3898
g67
(dp3899
sg76
g3871
sg69
(lp3900
g62
(g83
g64
NtRp3901
(dp3902
g67
(dp3903
g87
g88
ssg76
g3897
sg69
(lp3904
S'Content-Type'
p3905
asbag62
(g83
g64
NtRp3906
(dp3907
g67
(dp3908
g94
g95
ssg76
g3897
sg69
(lp3909
S':'
asbag62
(g83
g64
NtRp3910
(dp3911
g67
(dp3912
sg76
g3897
sg69
(lp3913
g62
(g63
g64
NtRp3914
(dp3915
g67
(dp3916
g75
I4
ssg76
g3910
sg69
(lp3917
S'text/html; charset=utf-8'
p3918
asbasbasbag62
(g78
g64
NtRp3919
(dp3920
g67
(dp3921
sg76
g3871
sg69
(lp3922
g62
(g83
g64
NtRp3923
(dp3924
g67
(dp3925
g87
g88
ssg76
g3919
sg69
(lp3926
S'Expires'
p3927
asbag62
(g83
g64
NtRp3928
(dp3929
g67
(dp3930
g94
g95
ssg76
g3919
sg69
(lp3931
S':'
asbag62
(g83
g64
NtRp3932
(dp3933
g67
(dp3934
sg76
g3919
sg69
(lp3935
g62
(g63
g64
NtRp3936
(dp3937
g67
(dp3938
g75
I4
ssg76
g3932
sg69
(lp3939
S'Mon, 23 Jan 2012 17:27:45 GMT'
p3940
asbasbasbag62
(g78
g64
NtRp3941
(dp3942
g67
(dp3943
sg76
g3871
sg69
(lp3944
g62
(g83
g64
NtRp3945
(dp3946
g67
(dp3947
g87
g88
ssg76
g3941
sg69
(lp3948
S'Pragma'
p3949
asbag62
(g83
g64
NtRp3950
(dp3951
g67
(dp3952
g94
g95
ssg76
g3941
sg69
(lp3953
S':'
asbag62
(g83
g64
NtRp3954
(dp3955
g67
(dp3956
sg76
g3941
sg69
(lp3957
g62
(g63
g64
NtRp3958
(dp3959
g67
(dp3960
g75
I4
ssg76
g3954
sg69
(lp3961
S'no-cache'
p3962
asbasbasbag62
(g78
g64
NtRp3963
(dp3964
g67
(dp3965
sg76
g3871
sg69
(lp3966
g62
(g83
g64
NtRp3967
(dp3968
g67
(dp3969
g87
g88
ssg76
g3963
sg69
(lp3970
S'X-Powered-By'
p3971
asbag62
(g83
g64
NtRp3972
(dp3973
g67
(dp3974
g94
g95
ssg76
g3963
sg69
(lp3975
S':'
asbag62
(g83
g64
NtRp3976
(dp3977
g67
(dp3978
sg76
g3963
sg69
(lp3979
g62
(g63
g64
NtRp3980
(dp3981
g67
(dp3982
g75
I4
ssg76
g3976
sg69
(lp3983
S'web2py'
p3984
asbasbasbasbasbasbasbag62
(g78
g64
NtRp3985
(dp3986
g67
(dp3987
sg76
g3533
sg69
(lp3988
g62
(g83
g64
NtRp3989
(dp3990
g67
(dp3991
g87
g88
ssg76
g3985
sg69
(lp3992
S'menu'
p3993
asbag62
(g83
g64
NtRp3994
(dp3995
g67
(dp3996
g94
g95
ssg76
g3985
sg69
(lp3997
S':'
asbag62
(g83
g64
NtRp3998
(dp3999
g67
(dp4000
sg76
g3985
sg69
(lp4001
g62
(g63
g64
NtRp4002
(dp4003
g67
(dp4004
g75
I5
ssg76
g3998
sg69
(lp4005
g62
(g71
g64
NtRp4006
(dp4007
g67
(dp4008
g75
I4
ssg76
Nsg69
(lp4009
g62
(g78
g64
NtRp4010
(dp4011
g67
(dp4012
sg76
g4006
sg69
(lp4013
g62
(g83
g64
NtRp4014
(dp4015
g67
(dp4016
sg76
g4010
sg69
(lp4017
g62
(g63
g64
NtRp4018
(dp4019
g67
(dp4020
g75
I4
ssg76
g4014
sg69
(lp4021
g62
(g71
g64
NtRp4022
(dp4023
g67
(dp4024
g75
I3
ssg76
Nsg69
(lp4025
g62
(g78
g64
NtRp4026
(dp4027
g67
(dp4028
sg76
g4022
sg69
(lp4029
g62
(g83
g64
NtRp4030
(dp4031
g67
(dp4032
sg76
g4026
sg69
(lp4033
g62
(g63
g64
NtRp4034
(dp4035
g67
(dp4036
g75
I3
ssg76
g4030
sg69
(lp4037
cgluon.languages
lazyT_unpickle
p4038
(S't\x05\x00\x00\x00Index'
tRp4039
asbasbasbag62
(g78
g64
NtRp4040
(dp4041
g67
(dp4042
sg76
g4022
sg69
(lp4043
g62
(g83
g64
NtRp4044
(dp4045
g67
(dp4046
sg76
g4040
sg69
(lp4047
g62
(g63
g64
NtRp4048
(dp4049
g67
(dp4050
g75
I3
ssg76
g4044
sg69
(lp4051
g105
asbasbasbag62
(g78
g64
NtRp4052
(dp4053
g67
(dp4054
sg76
g4022
sg69
(lp4055
g62
(g83
g64
NtRp4056
(dp4057
g67
(dp4058
sg76
g4052
sg69
(lp4059
g62
(g63
g64
NtRp4060
(dp4061
g67
(dp4062
g75
I3
ssg76
g4056
sg69
(lp4063
S'/eds/default/index'
p4064
asbasbasbag62
(g78
g64
NtRp4065
(dp4066
g67
(dp4067
sg76
g4022
sg69
(lp4068
g62
(g83
g64
NtRp4069
(dp4070
g67
(dp4071
sg76
g4065
sg69
(lp4072
g62
(g63
g64
NtRp4073
(dp4074
g67
(dp4075
g75
I3
ssg76
g4069
sg69
(lp4076
g62
(g71
g64
NtRp4077
(dp4078
g67
(dp4079
g75
I2
ssg76
Nsg69
(lp4080
sbasbasbasbasbasbasbasbasbasbasbasbag62
(g78
g64
NtRp4081
(dp4082
g67
(dp4083
sg76
g3533
sg69
(lp4084
g62
(g83
g64
NtRp4085
(dp4086
g67
(dp4087
g87
g88
ssg76
g4081
sg69
(lp4088
S'meta'
p4089
asbag62
(g83
g64
NtRp4090
(dp4091
g67
(dp4092
g94
g95
ssg76
g4081
sg69
(lp4093
S':'
asbag62
(g83
g64
NtRp4094
(dp4095
g67
(dp4096
sg76
g4081
sg69
(lp4097
g62
(g63
g64
NtRp4098
(dp4099
g67
(dp4100
g75
I5
ssg76
g4094
sg69
(lp4101
g62
(g71
g64
NtRp4102
(dp4103
g67
(dp4104
g75
I4
ssg76
Nsg69
(lp4105
g62
(g78
g64
NtRp4106
(dp4107
g67
(dp4108
sg76
g4102
sg69
(lp4109
g62
(g83
g64
NtRp4110
(dp4111
g67
(dp4112
g87
g88
ssg76
g4106
sg69
(lp4113
S'author'
p4114
asbag62
(g83
g64
NtRp4115
(dp4116
g67
(dp4117
g94
g95
ssg76
g4106
sg69
(lp4118
S':'
asbag62
(g83
g64
NtRp4119
(dp4120
g67
(dp4121
sg76
g4106
sg69
(lp4122
g62
(g63
g64
NtRp4123
(dp4124
g67
(dp4125
g75
I4
ssg76
g4119
sg69
(lp4126
S'Brad Miller <you@example.com>'
p4127
asbasbasbag62
(g78
g64
NtRp4128
(dp4129
g67
(dp4130
sg76
g4102
sg69
(lp4131
g62
(g83
g64
NtRp4132
(dp4133
g67
(dp4134
g87
g88
ssg76
g4128
sg69
(lp4135
S'description'
p4136
asbag62
(g83
g64
NtRp4137
(dp4138
g67
(dp4139
g94
g95
ssg76
g4128
sg69
(lp4140
S':'
asbag62
(g83
g64
NtRp4141
(dp4142
g67
(dp4143
sg76
g4128
sg69
(lp4144
g62
(g63
g64
NtRp4145
(dp4146
g67
(dp4147
g75
I4
ssg76
g4141
sg69
(lp4148
S''
asbasbasbag62
(g78
g64
NtRp4149
(dp4150
g67
(dp4151
sg76
g4102
sg69
(lp4152
g62
(g83
g64
NtRp4153
(dp4154
g67
(dp4155
g87
g88
ssg76
g4149
sg69
(lp4156
S'keywords'
p4157
asbag62
(g83
g64
NtRp4158
(dp4159
g67
(dp4160
g94
g95
ssg76
g4149
sg69
(lp4161
S':'
asbag62
(g83
g64
NtRp4162
(dp4163
g67
(dp4164
sg76
g4149
sg69
(lp4165
g62
(g63
g64
NtRp4166
(dp4167
g67
(dp4168
g75
I4
ssg76
g4162
sg69
(lp4169
S''
asbasbasbasbasbasbasbag62
(g78
g64
NtRp4170
(dp4171
g67
(dp4172
sg76
g3533
sg69
(lp4173
g62
(g83
g64
NtRp4174
(dp4175
g67
(dp4176
g87
g88
ssg76
g4170
sg69
(lp4177
S'postprocessing'
p4178
asbag62
(g83
g64
NtRp4179
(dp4180
g67
(dp4181
g94
g95
ssg76
g4170
sg69
(lp4182
S':'
asbag62
(g83
g64
NtRp4183
(dp4184
g67
(dp4185
sg76
g4170
sg69
(lp4186
g62
(g63
g64
NtRp4187
(dp4188
g67
(dp4189
g75
I5
ssg76
g4183
sg69
(lp4190
g62
(g71
g64
NtRp4191
(dp4192
g67
(dp4193
g75
I4
ssg76
Nsg69
(lp4194
sbasbasbasbag62
(g78
g64
NtRp4195
(dp4196
g67
(dp4197
sg76
g3533
sg69
(lp4198
g62
(g83
g64
NtRp4199
(dp4200
g67
(dp4201
g87
g88
ssg76
g4195
sg69
(lp4202
S'session_file'
p4203
asbag62
(g83
g64
NtRp4204
(dp4205
g67
(dp4206
g94
g95
ssg76
g4195
sg69
(lp4207
S':'
asbag62
(g83
g64
NtRp4208
(dp4209
g67
(dp4210
sg76
g4195
sg69
(lp4211
g62
(g63
g64
NtRp4212
(dp4213
g67
(dp4214
g75
I5
ssg76
g4208
sg69
(lp4215
S"<open file '/Users/bmiller/src/eds/applications/eds/sessions/127.0.0.1-606c6b2f-5df6-4644-a034-00968e408966', mode 'rb+' at 0x1093dc270>"
p4216
asbasbasbag62
(g78
g64
NtRp4217
(dp4218
g67
(dp4219
sg76
g3533
sg69
(lp4220
g62
(g83
g64
NtRp4221
(dp4222
g67
(dp4223
g87
g88
ssg76
g4217
sg69
(lp4224
S'session_filename'
p4225
asbag62
(g83
g64
NtRp4226
(dp4227
g67
(dp4228
g94
g95
ssg76
g4217
sg69
(lp4229
S':'
asbag62
(g83
g64
NtRp4230
(dp4231
g67
(dp4232
sg76
g4217
sg69
(lp4233
g62
(g63
g64
NtRp4234
(dp4235
g67
(dp4236
g75
I5
ssg76
g4230
sg69
(lp4237
S'/Users/bmiller/src/eds/applications/eds/sessions/127.0.0.1-606c6b2f-5df6-4644-a034-00968e408966'
p4238
asbasbasbag62
(g78
g64
NtRp4239
(dp4240
g67
(dp4241
sg76
g3533
sg69
(lp4242
g62
(g83
g64
NtRp4243
(dp4244
g67
(dp4245
g87
g88
ssg76
g4239
sg69
(lp4246
S'session_id'
p4247
asbag62
(g83
g64
NtRp4248
(dp4249
g67
(dp4250
g94
g95
ssg76
g4239
sg69
(lp4251
S':'
asbag62
(g83
g64
NtRp4252
(dp4253
g67
(dp4254
sg76
g4239
sg69
(lp4255
g62
(g63
g64
NtRp4256
(dp4257
g67
(dp4258
g75
I5
ssg76
g4252
sg69
(lp4259
S'127.0.0.1-606c6b2f-5df6-4644-a034-00968e408966'
p4260
asbasbasbag62
(g78
g64
NtRp4261
(dp4262
g67
(dp4263
sg76
g3533
sg69
(lp4264
g62
(g83
g64
NtRp4265
(dp4266
g67
(dp4267
g87
g88
ssg76
g4261
sg69
(lp4268
S'session_id_name'
p4269
asbag62
(g83
g64
NtRp4270
(dp4271
g67
(dp4272
g94
g95
ssg76
g4261
sg69
(lp4273
S':'
asbag62
(g83
g64
NtRp4274
(dp4275
g67
(dp4276
sg76
g4261
sg69
(lp4277
g62
(g63
g64
NtRp4278
(dp4279
g67
(dp4280
g75
I5
ssg76
g4274
sg69
(lp4281
g3590
asbasbasbag62
(g78
g64
NtRp4282
(dp4283
g67
(dp4284
sg76
g3533
sg69
(lp4285
g62
(g83
g64
NtRp4286
(dp4287
g67
(dp4288
g87
g88
ssg76
g4282
sg69
(lp4289
S'session_locked'
p4290
asbag62
(g83
g64
NtRp4291
(dp4292
g67
(dp4293
g94
g95
ssg76
g4282
sg69
(lp4294
S':'
asbag62
(g83
g64
NtRp4295
(dp4296
g67
(dp4297
sg76
g4282
sg69
(lp4298
g62
(g63
g64
NtRp4299
(dp4300
g67
(dp4301
g75
I5
ssg76
g4295
sg69
(lp4302
g2053
asbasbasbag62
(g78
g64
NtRp4303
(dp4304
g67
(dp4305
sg76
g3533
sg69
(lp4306
g62
(g83
g64
NtRp4307
(dp4308
g67
(dp4309
g87
g88
ssg76
g4303
sg69
(lp4310
S'session_new'
p4311
asbag62
(g83
g64
NtRp4312
(dp4313
g67
(dp4314
g94
g95
ssg76
g4303
sg69
(lp4315
S':'
asbag62
(g83
g64
NtRp4316
(dp4317
g67
(dp4318
sg76
g4303
sg69
(lp4319
g62
(g63
g64
NtRp4320
(dp4321
g67
(dp4322
g75
I5
ssg76
g4316
sg69
(lp4323
g105
asbasbasbag62
(g78
g64
NtRp4324
(dp4325
g67
(dp4326
sg76
g3533
sg69
(lp4327
g62
(g83
g64
NtRp4328
(dp4329
g67
(dp4330
g87
g88
ssg76
g4324
sg69
(lp4331
S'status'
p4332
asbag62
(g83
g64
NtRp4333
(dp4334
g67
(dp4335
g94
g95
ssg76
g4324
sg69
(lp4336
S':'
asbag62
(g83
g64
NtRp4337
(dp4338
g67
(dp4339
sg76
g4324
sg69
(lp4340
g62
(g63
g64
NtRp4341
(dp4342
g67
(dp4343
g75
I5
ssg76
g4337
sg69
(lp4344
S'200'
p4345
asbasbasbag62
(g78
g64
NtRp4346
(dp4347
g67
(dp4348
sg76
g3533
sg69
(lp4349
g62
(g83
g64
NtRp4350
(dp4351
g67
(dp4352
g87
g88
ssg76
g4346
sg69
(lp4353
S'subtitle'
p4354
asbag62
(g83
g64
NtRp4355
(dp4356
g67
(dp4357
g94
g95
ssg76
g4346
sg69
(lp4358
S':'
asbag62
(g83
g64
NtRp4359
(dp4360
g67
(dp4361
sg76
g4346
sg69
(lp4362
g62
(g63
g64
NtRp4363
(dp4364
g67
(dp4365
g75
I5
ssg76
g4359
sg69
(lp4366
S'powered by web2py'
p4367
asbasbasbag62
(g78
g64
NtRp4368
(dp4369
g67
(dp4370
sg76
g3533
sg69
(lp4371
g62
(g83
g64
NtRp4372
(dp4373
g67
(dp4374
g87
g88
ssg76
g4368
sg69
(lp4375
S'title'
p4376
asbag62
(g83
g64
NtRp4377
(dp4378
g67
(dp4379
g94
g95
ssg76
g4368
sg69
(lp4380
S':'
asbag62
(g83
g64
NtRp4381
(dp4382
g67
(dp4383
sg76
g4368
sg69
(lp4384
g62
(g63
g64
NtRp4385
(dp4386
g67
(dp4387
g75
I5
ssg76
g4381
sg69
(lp4388
S'Data Structures'
p4389
asbasbasbag62
(g78
g64
NtRp4390
(dp4391
g67
(dp4392
sg76
g3533
sg69
(lp4393
g62
(g83
g64
NtRp4394
(dp4395
g67
(dp4396
g87
g88
ssg76
g4390
sg69
(lp4397
g2717
asbag62
(g83
g64
NtRp4398
(dp4399
g67
(dp4400
g94
g95
ssg76
g4390
sg69
(lp4401
S':'
asbag62
(g83
g64
NtRp4402
(dp4403
g67
(dp4404
sg76
g4390
sg69
(lp4405
g62
(g63
g64
NtRp4406
(dp4407
g67
(dp4408
g75
I5
ssg76
g4402
sg69
(lp4409
g2730
asbasbasbag62
(g78
g64
NtRp4410
(dp4411
g67
(dp4412
sg76
g3533
sg69
(lp4413
g62
(g83
g64
NtRp4414
(dp4415
g67
(dp4416
g87
g88
ssg76
g4410
sg69
(lp4417
S'view'
p4418
asbag62
(g83
g64
NtRp4419
(dp4420
g67
(dp4421
g94
g95
ssg76
g4410
sg69
(lp4422
S':'
asbag62
(g83
g64
NtRp4423
(dp4424
g67
(dp4425
sg76
g4410
sg69
(lp4426
g62
(g63
g64
NtRp4427
(dp4428
g67
(dp4429
g75
I5
ssg76
g4423
sg69
(lp4430
S'build/builddoc.html'
p4431
asbasbasbasbasbsS'locals'
p4432
(dp4433
S'config_file'
p4434
S"'/Users/bmiller/src/eds/applications/eds/source/conf.py'"
p4435
sS'tags'
p4436
S'<sphinx.util.tags.Tags object>'
p4437
sS'overrides'
p4438
g19
sg35
S"'conf.py'"
p4439
sS'olddir'
p4440
S"'/Users/bmiller/src/eds'"
p4441
sS'dirname'
p4442
S"'/Users/bmiller/src/eds/applications/eds/source'"
p4443
sS'config'
p4444
S"{'__file__': '/Users/bmiller/src/eds/applications/eds/source/conf.py', 'tags': <sphinx.util.tags.Tags object>}"
p4445
sS'self'
p4446
S'<sphinx.config.Config object>'
p4447
sssS'traceback'
p4448
S'Traceback (most recent call last):\n  File "/Users/bmiller/src/eds/gluon/restricted.py", line 204, in restricted\n    exec ccode in environment\n  File "/Users/bmiller/src/eds/applications/eds/controllers/build.py", line 11, in <module>\n  File "/Users/bmiller/src/eds/gluon/globals.py", line 172, in <lambda>\n    self._caller = lambda f: f()\n  File "/Users/bmiller/src/eds/applications/eds/controllers/build.py", line 7, in builddoc\n    support.build()\n  File "/Library/Python/2.7/site-packages/Sphinx-1.1.2-py2.7.egg/sphinx/websupport/__init__.py", line 121, in build\n    \'websupport\', status=self.status, warning=self.warning)\n  File "/Library/Python/2.7/site-packages/Sphinx-1.1.2-py2.7.egg/sphinx/application.py", line 102, in __init__\n    confoverrides or {}, self.tags)\n  File "/Library/Python/2.7/site-packages/Sphinx-1.1.2-py2.7.egg/sphinx/config.py", line 196, in __init__\n    os.chdir(dirname)\nOSError: [Errno 2] No such file or directory: \'/Users/bmiller/src/eds/applications/eds/source\'\n'
p4449
s.