(dp1
S'output'
p2
S"<type 'exceptions.OSError'> [Errno 13] Permission denied: '/eds'"
p3
sS'layer'
p4
S'/Users/bmiller/src/eds/applications/eds/controllers/build.py'
p5
sS'code'
p6
S"from sphinx.websupport import WebSupport\nimport json\n\n\ndef builddoc():\n    support = WebSupport(srcdir='/Users/bmiller/src/eds/applications/eds/source',builddir='/Users/bmiller/src/eds/applications/eds/static',staticdir='/eds/static',docroot='/eds/view')\n    support.build()\n    return 'Success'\n\n\nresponse._vars=response._caller(builddoc)\n"
p7
sS'snapshot'
p8
(dp9
S'exception'
p10
(dp11
S'__getslice__'
p12
S"<method-wrapper '__getslice__' of exceptions.OSError object>"
p13
sS'__str__'
p14
S"<method-wrapper '__str__' of exceptions.OSError object>"
p15
sS'__reduce__'
p16
S'<built-in method __reduce__ of exceptions.OSError object>'
p17
sS'__dict__'
p18
S'{}'
p19
sS'__sizeof__'
p20
S'<built-in method __sizeof__ of exceptions.OSError object>'
p21
sS'__init__'
p22
S"<method-wrapper '__init__' of exceptions.OSError object>"
p23
sS'__setattr__'
p24
S"<method-wrapper '__setattr__' of exceptions.OSError object>"
p25
sS'__reduce_ex__'
p26
S'<built-in method __reduce_ex__ of exceptions.OSError object>'
p27
sS'__new__'
p28
S'<built-in method __new__ of type object>'
p29
sS'errno'
p30
S'13'
p31
sS'__format__'
p32
S'<built-in method __format__ of exceptions.OSError object>'
p33
sS'__class__'
p34
S"<type 'exceptions.OSError'>"
p35
sS'filename'
p36
S"'/eds'"
p37
sS'__doc__'
p38
S"'OS system call failed.'"
p39
sS'__getitem__'
p40
S"<method-wrapper '__getitem__' of exceptions.OSError object>"
p41
sS'__setstate__'
p42
S'<built-in method __setstate__ of exceptions.OSError object>'
p43
sS'__getattribute__'
p44
S"<method-wrapper '__getattribute__' of exceptions.OSError object>"
p45
sS'args'
p46
S"(13, 'Permission denied')"
p47
sS'__subclasshook__'
p48
S'<built-in method __subclasshook__ of type object>'
p49
sS'__unicode__'
p50
S'<built-in method __unicode__ of exceptions.OSError object>'
p51
sS'strerror'
p52
S"'Permission denied'"
p53
sS'__delattr__'
p54
S"<method-wrapper '__delattr__' of exceptions.OSError object>"
p55
sS'__repr__'
p56
S"<method-wrapper '__repr__' of exceptions.OSError object>"
p57
sS'__hash__'
p58
S"<method-wrapper '__hash__' of exceptions.OSError object>"
p59
ssS'evalue'
p60
S"[Errno 13] Permission denied: '/eds'"
p61
sS'request'
p62
ccopy_reg
_reconstructor
p63
(cgluon.html
BEAUTIFY
p64
c__builtin__
object
p65
NtRp66
(dp67
S'attributes'
p68
(dp69
sS'components'
p70
(lp71
g63
(cgluon.html
TABLE
p72
g65
NtRp73
(dp74
g68
(dp75
S'level'
p76
I5
ssS'parent'
p77
Nsg70
(lp78
g63
(cgluon.html
TR
p79
g65
NtRp80
(dp81
g68
(dp82
sg77
g73
sg70
(lp83
g63
(cgluon.html
TD
p84
g65
NtRp85
(dp86
g68
(dp87
S'_style'
p88
S'font-weight:bold;vertical-align:top'
p89
ssg77
g80
sg70
(lp90
S'ajax'
p91
asbag63
(g84
g65
NtRp92
(dp93
g68
(dp94
S'_valign'
p95
S'top'
p96
ssg77
g80
sg70
(lp97
S':'
asbag63
(g84
g65
NtRp98
(dp99
g68
(dp100
sg77
g80
sg70
(lp101
g63
(g64
g65
NtRp102
(dp103
g68
(dp104
g76
I5
ssg77
g98
sg70
(lp105
S'False'
p106
asbasbasbag63
(g79
g65
NtRp107
(dp108
g68
(dp109
sg77
g73
sg70
(lp110
g63
(g84
g65
NtRp111
(dp112
g68
(dp113
g88
g89
ssg77
g107
sg70
(lp114
S'application'
p115
asbag63
(g84
g65
NtRp116
(dp117
g68
(dp118
g95
g96
ssg77
g107
sg70
(lp119
S':'
asbag63
(g84
g65
NtRp120
(dp121
g68
(dp122
sg77
g107
sg70
(lp123
g63
(g64
g65
NtRp124
(dp125
g68
(dp126
g76
I5
ssg77
g120
sg70
(lp127
S'eds'
p128
asbasbasbag63
(g79
g65
NtRp129
(dp130
g68
(dp131
sg77
g73
sg70
(lp132
g63
(g84
g65
NtRp133
(dp134
g68
(dp135
g88
g89
ssg77
g129
sg70
(lp136
g46
asbag63
(g84
g65
NtRp137
(dp138
g68
(dp139
g95
g96
ssg77
g129
sg70
(lp140
S':'
asbag63
(g84
g65
NtRp141
(dp142
g68
(dp143
sg77
g129
sg70
(lp144
g63
(g64
g65
NtRp145
(dp146
g68
(dp147
g76
I5
ssg77
g141
sg70
(lp148
g63
(g72
g65
NtRp149
(dp150
g68
(dp151
g76
I4
ssg77
Nsg70
(lp152
sbasbasbasbag63
(g79
g65
NtRp153
(dp154
g68
(dp155
sg77
g73
sg70
(lp156
g63
(g84
g65
NtRp157
(dp158
g68
(dp159
g88
g89
ssg77
g153
sg70
(lp160
S'body'
p161
asbag63
(g84
g65
NtRp162
(dp163
g68
(dp164
g95
g96
ssg77
g153
sg70
(lp165
S':'
asbag63
(g84
g65
NtRp166
(dp167
g68
(dp168
sg77
g153
sg70
(lp169
g63
(g64
g65
NtRp170
(dp171
g68
(dp172
g76
I5
ssg77
g166
sg70
(lp173
S'<cStringIO.StringO object at 0x109dbc2d0>'
p174
asbasbasbag63
(g79
g65
NtRp175
(dp176
g68
(dp177
sg77
g73
sg70
(lp178
g63
(g84
g65
NtRp179
(dp180
g68
(dp181
g88
g89
ssg77
g175
sg70
(lp182
S'client'
p183
asbag63
(g84
g65
NtRp184
(dp185
g68
(dp186
g95
g96
ssg77
g175
sg70
(lp187
S':'
asbag63
(g84
g65
NtRp188
(dp189
g68
(dp190
sg77
g175
sg70
(lp191
g63
(g64
g65
NtRp192
(dp193
g68
(dp194
g76
I5
ssg77
g188
sg70
(lp195
S'127.0.0.1'
p196
asbasbasbag63
(g79
g65
NtRp197
(dp198
g68
(dp199
sg77
g73
sg70
(lp200
g63
(g84
g65
NtRp201
(dp202
g68
(dp203
g88
g89
ssg77
g197
sg70
(lp204
S'controller'
p205
asbag63
(g84
g65
NtRp206
(dp207
g68
(dp208
g95
g96
ssg77
g197
sg70
(lp209
S':'
asbag63
(g84
g65
NtRp210
(dp211
g68
(dp212
sg77
g197
sg70
(lp213
g63
(g64
g65
NtRp214
(dp215
g68
(dp216
g76
I5
ssg77
g210
sg70
(lp217
S'build'
p218
asbasbasbag63
(g79
g65
NtRp219
(dp220
g68
(dp221
sg77
g73
sg70
(lp222
g63
(g84
g65
NtRp223
(dp224
g68
(dp225
g88
g89
ssg77
g219
sg70
(lp226
S'cookies'
p227
asbag63
(g84
g65
NtRp228
(dp229
g68
(dp230
g95
g96
ssg77
g219
sg70
(lp231
S':'
asbag63
(g84
g65
NtRp232
(dp233
g68
(dp234
sg77
g219
sg70
(lp235
g63
(g64
g65
NtRp236
(dp237
g68
(dp238
g76
I5
ssg77
g232
sg70
(lp239
g63
(g72
g65
NtRp240
(dp241
g68
(dp242
g76
I4
ssg77
Nsg70
(lp243
g63
(g79
g65
NtRp244
(dp245
g68
(dp246
sg77
g240
sg70
(lp247
g63
(g84
g65
NtRp248
(dp249
g68
(dp250
g88
g89
ssg77
g244
sg70
(lp251
S'session_id_admin'
p252
asbag63
(g84
g65
NtRp253
(dp254
g68
(dp255
g95
g96
ssg77
g244
sg70
(lp256
S':'
asbag63
(g84
g65
NtRp257
(dp258
g68
(dp259
sg77
g244
sg70
(lp260
g63
(g64
g65
NtRp261
(dp262
g68
(dp263
g76
I4
ssg77
g257
sg70
(lp264
g63
(g72
g65
NtRp265
(dp266
g68
(dp267
g76
I3
ssg77
Nsg70
(lp268
g63
(g79
g65
NtRp269
(dp270
g68
(dp271
sg77
g265
sg70
(lp272
g63
(g84
g65
NtRp273
(dp274
g68
(dp275
g88
g89
ssg77
g269
sg70
(lp276
S'comment'
p277
asbag63
(g84
g65
NtRp278
(dp279
g68
(dp280
g95
g96
ssg77
g269
sg70
(lp281
S':'
asbag63
(g84
g65
NtRp282
(dp283
g68
(dp284
sg77
g269
sg70
(lp285
g63
(g64
g65
NtRp286
(dp287
g68
(dp288
g76
I3
ssg77
g282
sg70
(lp289
S''
asbasbasbag63
(g79
g65
NtRp290
(dp291
g68
(dp292
sg77
g265
sg70
(lp293
g63
(g84
g65
NtRp294
(dp295
g68
(dp296
g88
g89
ssg77
g290
sg70
(lp297
S'domain'
p298
asbag63
(g84
g65
NtRp299
(dp300
g68
(dp301
g95
g96
ssg77
g290
sg70
(lp302
S':'
asbag63
(g84
g65
NtRp303
(dp304
g68
(dp305
sg77
g290
sg70
(lp306
g63
(g64
g65
NtRp307
(dp308
g68
(dp309
g76
I3
ssg77
g303
sg70
(lp310
S''
asbasbasbag63
(g79
g65
NtRp311
(dp312
g68
(dp313
sg77
g265
sg70
(lp314
g63
(g84
g65
NtRp315
(dp316
g68
(dp317
g88
g89
ssg77
g311
sg70
(lp318
S'expires'
p319
asbag63
(g84
g65
NtRp320
(dp321
g68
(dp322
g95
g96
ssg77
g311
sg70
(lp323
S':'
asbag63
(g84
g65
NtRp324
(dp325
g68
(dp326
sg77
g311
sg70
(lp327
g63
(g64
g65
NtRp328
(dp329
g68
(dp330
g76
I3
ssg77
g324
sg70
(lp331
S''
asbasbasbag63
(g79
g65
NtRp332
(dp333
g68
(dp334
sg77
g265
sg70
(lp335
g63
(g84
g65
NtRp336
(dp337
g68
(dp338
g88
g89
ssg77
g332
sg70
(lp339
S'httponly'
p340
asbag63
(g84
g65
NtRp341
(dp342
g68
(dp343
g95
g96
ssg77
g332
sg70
(lp344
S':'
asbag63
(g84
g65
NtRp345
(dp346
g68
(dp347
sg77
g332
sg70
(lp348
g63
(g64
g65
NtRp349
(dp350
g68
(dp351
g76
I3
ssg77
g345
sg70
(lp352
S''
asbasbasbag63
(g79
g65
NtRp353
(dp354
g68
(dp355
sg77
g265
sg70
(lp356
g63
(g84
g65
NtRp357
(dp358
g68
(dp359
g88
g89
ssg77
g353
sg70
(lp360
S'max-age'
p361
asbag63
(g84
g65
NtRp362
(dp363
g68
(dp364
g95
g96
ssg77
g353
sg70
(lp365
S':'
asbag63
(g84
g65
NtRp366
(dp367
g68
(dp368
sg77
g353
sg70
(lp369
g63
(g64
g65
NtRp370
(dp371
g68
(dp372
g76
I3
ssg77
g366
sg70
(lp373
S''
asbasbasbag63
(g79
g65
NtRp374
(dp375
g68
(dp376
sg77
g265
sg70
(lp377
g63
(g84
g65
NtRp378
(dp379
g68
(dp380
g88
g89
ssg77
g374
sg70
(lp381
S'path'
p382
asbag63
(g84
g65
NtRp383
(dp384
g68
(dp385
g95
g96
ssg77
g374
sg70
(lp386
S':'
asbag63
(g84
g65
NtRp387
(dp388
g68
(dp389
sg77
g374
sg70
(lp390
g63
(g64
g65
NtRp391
(dp392
g68
(dp393
g76
I3
ssg77
g387
sg70
(lp394
S''
asbasbasbag63
(g79
g65
NtRp395
(dp396
g68
(dp397
sg77
g265
sg70
(lp398
g63
(g84
g65
NtRp399
(dp400
g68
(dp401
g88
g89
ssg77
g395
sg70
(lp402
S'secure'
p403
asbag63
(g84
g65
NtRp404
(dp405
g68
(dp406
g95
g96
ssg77
g395
sg70
(lp407
S':'
asbag63
(g84
g65
NtRp408
(dp409
g68
(dp410
sg77
g395
sg70
(lp411
g63
(g64
g65
NtRp412
(dp413
g68
(dp414
g76
I3
ssg77
g408
sg70
(lp415
S''
asbasbasbag63
(g79
g65
NtRp416
(dp417
g68
(dp418
sg77
g265
sg70
(lp419
g63
(g84
g65
NtRp420
(dp421
g68
(dp422
g88
g89
ssg77
g416
sg70
(lp423
S'version'
p424
asbag63
(g84
g65
NtRp425
(dp426
g68
(dp427
g95
g96
ssg77
g416
sg70
(lp428
S':'
asbag63
(g84
g65
NtRp429
(dp430
g68
(dp431
sg77
g416
sg70
(lp432
g63
(g64
g65
NtRp433
(dp434
g68
(dp435
g76
I3
ssg77
g429
sg70
(lp436
S''
asbasbasbasbasbasbasbag63
(g79
g65
NtRp437
(dp438
g68
(dp439
sg77
g240
sg70
(lp440
g63
(g84
g65
NtRp441
(dp442
g68
(dp443
g88
g89
ssg77
g437
sg70
(lp444
S'session_id_eds'
p445
asbag63
(g84
g65
NtRp446
(dp447
g68
(dp448
g95
g96
ssg77
g437
sg70
(lp449
S':'
asbag63
(g84
g65
NtRp450
(dp451
g68
(dp452
sg77
g437
sg70
(lp453
g63
(g64
g65
NtRp454
(dp455
g68
(dp456
g76
I4
ssg77
g450
sg70
(lp457
g63
(g72
g65
NtRp458
(dp459
g68
(dp460
g76
I3
ssg77
Nsg70
(lp461
g63
(g79
g65
NtRp462
(dp463
g68
(dp464
sg77
g458
sg70
(lp465
g63
(g84
g65
NtRp466
(dp467
g68
(dp468
g88
g89
ssg77
g462
sg70
(lp469
g277
asbag63
(g84
g65
NtRp470
(dp471
g68
(dp472
g95
g96
ssg77
g462
sg70
(lp473
S':'
asbag63
(g84
g65
NtRp474
(dp475
g68
(dp476
sg77
g462
sg70
(lp477
g63
(g64
g65
NtRp478
(dp479
g68
(dp480
g76
I3
ssg77
g474
sg70
(lp481
S''
asbasbasbag63
(g79
g65
NtRp482
(dp483
g68
(dp484
sg77
g458
sg70
(lp485
g63
(g84
g65
NtRp486
(dp487
g68
(dp488
g88
g89
ssg77
g482
sg70
(lp489
g298
asbag63
(g84
g65
NtRp490
(dp491
g68
(dp492
g95
g96
ssg77
g482
sg70
(lp493
S':'
asbag63
(g84
g65
NtRp494
(dp495
g68
(dp496
sg77
g482
sg70
(lp497
g63
(g64
g65
NtRp498
(dp499
g68
(dp500
g76
I3
ssg77
g494
sg70
(lp501
S''
asbasbasbag63
(g79
g65
NtRp502
(dp503
g68
(dp504
sg77
g458
sg70
(lp505
g63
(g84
g65
NtRp506
(dp507
g68
(dp508
g88
g89
ssg77
g502
sg70
(lp509
g319
asbag63
(g84
g65
NtRp510
(dp511
g68
(dp512
g95
g96
ssg77
g502
sg70
(lp513
S':'
asbag63
(g84
g65
NtRp514
(dp515
g68
(dp516
sg77
g502
sg70
(lp517
g63
(g64
g65
NtRp518
(dp519
g68
(dp520
g76
I3
ssg77
g514
sg70
(lp521
S''
asbasbasbag63
(g79
g65
NtRp522
(dp523
g68
(dp524
sg77
g458
sg70
(lp525
g63
(g84
g65
NtRp526
(dp527
g68
(dp528
g88
g89
ssg77
g522
sg70
(lp529
g340
asbag63
(g84
g65
NtRp530
(dp531
g68
(dp532
g95
g96
ssg77
g522
sg70
(lp533
S':'
asbag63
(g84
g65
NtRp534
(dp535
g68
(dp536
sg77
g522
sg70
(lp537
g63
(g64
g65
NtRp538
(dp539
g68
(dp540
g76
I3
ssg77
g534
sg70
(lp541
S''
asbasbasbag63
(g79
g65
NtRp542
(dp543
g68
(dp544
sg77
g458
sg70
(lp545
g63
(g84
g65
NtRp546
(dp547
g68
(dp548
g88
g89
ssg77
g542
sg70
(lp549
g361
asbag63
(g84
g65
NtRp550
(dp551
g68
(dp552
g95
g96
ssg77
g542
sg70
(lp553
S':'
asbag63
(g84
g65
NtRp554
(dp555
g68
(dp556
sg77
g542
sg70
(lp557
g63
(g64
g65
NtRp558
(dp559
g68
(dp560
g76
I3
ssg77
g554
sg70
(lp561
S''
asbasbasbag63
(g79
g65
NtRp562
(dp563
g68
(dp564
sg77
g458
sg70
(lp565
g63
(g84
g65
NtRp566
(dp567
g68
(dp568
g88
g89
ssg77
g562
sg70
(lp569
g382
asbag63
(g84
g65
NtRp570
(dp571
g68
(dp572
g95
g96
ssg77
g562
sg70
(lp573
S':'
asbag63
(g84
g65
NtRp574
(dp575
g68
(dp576
sg77
g562
sg70
(lp577
g63
(g64
g65
NtRp578
(dp579
g68
(dp580
g76
I3
ssg77
g574
sg70
(lp581
S''
asbasbasbag63
(g79
g65
NtRp582
(dp583
g68
(dp584
sg77
g458
sg70
(lp585
g63
(g84
g65
NtRp586
(dp587
g68
(dp588
g88
g89
ssg77
g582
sg70
(lp589
g403
asbag63
(g84
g65
NtRp590
(dp591
g68
(dp592
g95
g96
ssg77
g582
sg70
(lp593
S':'
asbag63
(g84
g65
NtRp594
(dp595
g68
(dp596
sg77
g582
sg70
(lp597
g63
(g64
g65
NtRp598
(dp599
g68
(dp600
g76
I3
ssg77
g594
sg70
(lp601
S''
asbasbasbag63
(g79
g65
NtRp602
(dp603
g68
(dp604
sg77
g458
sg70
(lp605
g63
(g84
g65
NtRp606
(dp607
g68
(dp608
g88
g89
ssg77
g602
sg70
(lp609
g424
asbag63
(g84
g65
NtRp610
(dp611
g68
(dp612
g95
g96
ssg77
g602
sg70
(lp613
S':'
asbag63
(g84
g65
NtRp614
(dp615
g68
(dp616
sg77
g602
sg70
(lp617
g63
(g64
g65
NtRp618
(dp619
g68
(dp620
g76
I3
ssg77
g614
sg70
(lp621
S''
asbasbasbasbasbasbasbag63
(g79
g65
NtRp622
(dp623
g68
(dp624
sg77
g240
sg70
(lp625
g63
(g84
g65
NtRp626
(dp627
g68
(dp628
g88
g89
ssg77
g622
sg70
(lp629
S'session_id_testeds'
p630
asbag63
(g84
g65
NtRp631
(dp632
g68
(dp633
g95
g96
ssg77
g622
sg70
(lp634
S':'
asbag63
(g84
g65
NtRp635
(dp636
g68
(dp637
sg77
g622
sg70
(lp638
g63
(g64
g65
NtRp639
(dp640
g68
(dp641
g76
I4
ssg77
g635
sg70
(lp642
g63
(g72
g65
NtRp643
(dp644
g68
(dp645
g76
I3
ssg77
Nsg70
(lp646
g63
(g79
g65
NtRp647
(dp648
g68
(dp649
sg77
g643
sg70
(lp650
g63
(g84
g65
NtRp651
(dp652
g68
(dp653
g88
g89
ssg77
g647
sg70
(lp654
g277
asbag63
(g84
g65
NtRp655
(dp656
g68
(dp657
g95
g96
ssg77
g647
sg70
(lp658
S':'
asbag63
(g84
g65
NtRp659
(dp660
g68
(dp661
sg77
g647
sg70
(lp662
g63
(g64
g65
NtRp663
(dp664
g68
(dp665
g76
I3
ssg77
g659
sg70
(lp666
S''
asbasbasbag63
(g79
g65
NtRp667
(dp668
g68
(dp669
sg77
g643
sg70
(lp670
g63
(g84
g65
NtRp671
(dp672
g68
(dp673
g88
g89
ssg77
g667
sg70
(lp674
g298
asbag63
(g84
g65
NtRp675
(dp676
g68
(dp677
g95
g96
ssg77
g667
sg70
(lp678
S':'
asbag63
(g84
g65
NtRp679
(dp680
g68
(dp681
sg77
g667
sg70
(lp682
g63
(g64
g65
NtRp683
(dp684
g68
(dp685
g76
I3
ssg77
g679
sg70
(lp686
S''
asbasbasbag63
(g79
g65
NtRp687
(dp688
g68
(dp689
sg77
g643
sg70
(lp690
g63
(g84
g65
NtRp691
(dp692
g68
(dp693
g88
g89
ssg77
g687
sg70
(lp694
g319
asbag63
(g84
g65
NtRp695
(dp696
g68
(dp697
g95
g96
ssg77
g687
sg70
(lp698
S':'
asbag63
(g84
g65
NtRp699
(dp700
g68
(dp701
sg77
g687
sg70
(lp702
g63
(g64
g65
NtRp703
(dp704
g68
(dp705
g76
I3
ssg77
g699
sg70
(lp706
S''
asbasbasbag63
(g79
g65
NtRp707
(dp708
g68
(dp709
sg77
g643
sg70
(lp710
g63
(g84
g65
NtRp711
(dp712
g68
(dp713
g88
g89
ssg77
g707
sg70
(lp714
g340
asbag63
(g84
g65
NtRp715
(dp716
g68
(dp717
g95
g96
ssg77
g707
sg70
(lp718
S':'
asbag63
(g84
g65
NtRp719
(dp720
g68
(dp721
sg77
g707
sg70
(lp722
g63
(g64
g65
NtRp723
(dp724
g68
(dp725
g76
I3
ssg77
g719
sg70
(lp726
S''
asbasbasbag63
(g79
g65
NtRp727
(dp728
g68
(dp729
sg77
g643
sg70
(lp730
g63
(g84
g65
NtRp731
(dp732
g68
(dp733
g88
g89
ssg77
g727
sg70
(lp734
g361
asbag63
(g84
g65
NtRp735
(dp736
g68
(dp737
g95
g96
ssg77
g727
sg70
(lp738
S':'
asbag63
(g84
g65
NtRp739
(dp740
g68
(dp741
sg77
g727
sg70
(lp742
g63
(g64
g65
NtRp743
(dp744
g68
(dp745
g76
I3
ssg77
g739
sg70
(lp746
S''
asbasbasbag63
(g79
g65
NtRp747
(dp748
g68
(dp749
sg77
g643
sg70
(lp750
g63
(g84
g65
NtRp751
(dp752
g68
(dp753
g88
g89
ssg77
g747
sg70
(lp754
g382
asbag63
(g84
g65
NtRp755
(dp756
g68
(dp757
g95
g96
ssg77
g747
sg70
(lp758
S':'
asbag63
(g84
g65
NtRp759
(dp760
g68
(dp761
sg77
g747
sg70
(lp762
g63
(g64
g65
NtRp763
(dp764
g68
(dp765
g76
I3
ssg77
g759
sg70
(lp766
S''
asbasbasbag63
(g79
g65
NtRp767
(dp768
g68
(dp769
sg77
g643
sg70
(lp770
g63
(g84
g65
NtRp771
(dp772
g68
(dp773
g88
g89
ssg77
g767
sg70
(lp774
g403
asbag63
(g84
g65
NtRp775
(dp776
g68
(dp777
g95
g96
ssg77
g767
sg70
(lp778
S':'
asbag63
(g84
g65
NtRp779
(dp780
g68
(dp781
sg77
g767
sg70
(lp782
g63
(g64
g65
NtRp783
(dp784
g68
(dp785
g76
I3
ssg77
g779
sg70
(lp786
S''
asbasbasbag63
(g79
g65
NtRp787
(dp788
g68
(dp789
sg77
g643
sg70
(lp790
g63
(g84
g65
NtRp791
(dp792
g68
(dp793
g88
g89
ssg77
g787
sg70
(lp794
g424
asbag63
(g84
g65
NtRp795
(dp796
g68
(dp797
g95
g96
ssg77
g787
sg70
(lp798
S':'
asbag63
(g84
g65
NtRp799
(dp800
g68
(dp801
sg77
g787
sg70
(lp802
g63
(g64
g65
NtRp803
(dp804
g68
(dp805
g76
I3
ssg77
g799
sg70
(lp806
S''
asbasbasbasbasbasbasbag63
(g79
g65
NtRp807
(dp808
g68
(dp809
sg77
g240
sg70
(lp810
g63
(g84
g65
NtRp811
(dp812
g68
(dp813
g88
g89
ssg77
g807
sg70
(lp814
S'session_id_thing'
p815
asbag63
(g84
g65
NtRp816
(dp817
g68
(dp818
g95
g96
ssg77
g807
sg70
(lp819
S':'
asbag63
(g84
g65
NtRp820
(dp821
g68
(dp822
sg77
g807
sg70
(lp823
g63
(g64
g65
NtRp824
(dp825
g68
(dp826
g76
I4
ssg77
g820
sg70
(lp827
g63
(g72
g65
NtRp828
(dp829
g68
(dp830
g76
I3
ssg77
Nsg70
(lp831
g63
(g79
g65
NtRp832
(dp833
g68
(dp834
sg77
g828
sg70
(lp835
g63
(g84
g65
NtRp836
(dp837
g68
(dp838
g88
g89
ssg77
g832
sg70
(lp839
g277
asbag63
(g84
g65
NtRp840
(dp841
g68
(dp842
g95
g96
ssg77
g832
sg70
(lp843
S':'
asbag63
(g84
g65
NtRp844
(dp845
g68
(dp846
sg77
g832
sg70
(lp847
g63
(g64
g65
NtRp848
(dp849
g68
(dp850
g76
I3
ssg77
g844
sg70
(lp851
S''
asbasbasbag63
(g79
g65
NtRp852
(dp853
g68
(dp854
sg77
g828
sg70
(lp855
g63
(g84
g65
NtRp856
(dp857
g68
(dp858
g88
g89
ssg77
g852
sg70
(lp859
g298
asbag63
(g84
g65
NtRp860
(dp861
g68
(dp862
g95
g96
ssg77
g852
sg70
(lp863
S':'
asbag63
(g84
g65
NtRp864
(dp865
g68
(dp866
sg77
g852
sg70
(lp867
g63
(g64
g65
NtRp868
(dp869
g68
(dp870
g76
I3
ssg77
g864
sg70
(lp871
S''
asbasbasbag63
(g79
g65
NtRp872
(dp873
g68
(dp874
sg77
g828
sg70
(lp875
g63
(g84
g65
NtRp876
(dp877
g68
(dp878
g88
g89
ssg77
g872
sg70
(lp879
g319
asbag63
(g84
g65
NtRp880
(dp881
g68
(dp882
g95
g96
ssg77
g872
sg70
(lp883
S':'
asbag63
(g84
g65
NtRp884
(dp885
g68
(dp886
sg77
g872
sg70
(lp887
g63
(g64
g65
NtRp888
(dp889
g68
(dp890
g76
I3
ssg77
g884
sg70
(lp891
S''
asbasbasbag63
(g79
g65
NtRp892
(dp893
g68
(dp894
sg77
g828
sg70
(lp895
g63
(g84
g65
NtRp896
(dp897
g68
(dp898
g88
g89
ssg77
g892
sg70
(lp899
g340
asbag63
(g84
g65
NtRp900
(dp901
g68
(dp902
g95
g96
ssg77
g892
sg70
(lp903
S':'
asbag63
(g84
g65
NtRp904
(dp905
g68
(dp906
sg77
g892
sg70
(lp907
g63
(g64
g65
NtRp908
(dp909
g68
(dp910
g76
I3
ssg77
g904
sg70
(lp911
S''
asbasbasbag63
(g79
g65
NtRp912
(dp913
g68
(dp914
sg77
g828
sg70
(lp915
g63
(g84
g65
NtRp916
(dp917
g68
(dp918
g88
g89
ssg77
g912
sg70
(lp919
g361
asbag63
(g84
g65
NtRp920
(dp921
g68
(dp922
g95
g96
ssg77
g912
sg70
(lp923
S':'
asbag63
(g84
g65
NtRp924
(dp925
g68
(dp926
sg77
g912
sg70
(lp927
g63
(g64
g65
NtRp928
(dp929
g68
(dp930
g76
I3
ssg77
g924
sg70
(lp931
S''
asbasbasbag63
(g79
g65
NtRp932
(dp933
g68
(dp934
sg77
g828
sg70
(lp935
g63
(g84
g65
NtRp936
(dp937
g68
(dp938
g88
g89
ssg77
g932
sg70
(lp939
g382
asbag63
(g84
g65
NtRp940
(dp941
g68
(dp942
g95
g96
ssg77
g932
sg70
(lp943
S':'
asbag63
(g84
g65
NtRp944
(dp945
g68
(dp946
sg77
g932
sg70
(lp947
g63
(g64
g65
NtRp948
(dp949
g68
(dp950
g76
I3
ssg77
g944
sg70
(lp951
S''
asbasbasbag63
(g79
g65
NtRp952
(dp953
g68
(dp954
sg77
g828
sg70
(lp955
g63
(g84
g65
NtRp956
(dp957
g68
(dp958
g88
g89
ssg77
g952
sg70
(lp959
g403
asbag63
(g84
g65
NtRp960
(dp961
g68
(dp962
g95
g96
ssg77
g952
sg70
(lp963
S':'
asbag63
(g84
g65
NtRp964
(dp965
g68
(dp966
sg77
g952
sg70
(lp967
g63
(g64
g65
NtRp968
(dp969
g68
(dp970
g76
I3
ssg77
g964
sg70
(lp971
S''
asbasbasbag63
(g79
g65
NtRp972
(dp973
g68
(dp974
sg77
g828
sg70
(lp975
g63
(g84
g65
NtRp976
(dp977
g68
(dp978
g88
g89
ssg77
g972
sg70
(lp979
g424
asbag63
(g84
g65
NtRp980
(dp981
g68
(dp982
g95
g96
ssg77
g972
sg70
(lp983
S':'
asbag63
(g84
g65
NtRp984
(dp985
g68
(dp986
sg77
g972
sg70
(lp987
g63
(g64
g65
NtRp988
(dp989
g68
(dp990
g76
I3
ssg77
g984
sg70
(lp991
S''
asbasbasbasbasbasbasbag63
(g79
g65
NtRp992
(dp993
g68
(dp994
sg77
g240
sg70
(lp995
g63
(g84
g65
NtRp996
(dp997
g68
(dp998
g88
g89
ssg77
g992
sg70
(lp999
S'session_id_welcome'
p1000
asbag63
(g84
g65
NtRp1001
(dp1002
g68
(dp1003
g95
g96
ssg77
g992
sg70
(lp1004
S':'
asbag63
(g84
g65
NtRp1005
(dp1006
g68
(dp1007
sg77
g992
sg70
(lp1008
g63
(g64
g65
NtRp1009
(dp1010
g68
(dp1011
g76
I4
ssg77
g1005
sg70
(lp1012
g63
(g72
g65
NtRp1013
(dp1014
g68
(dp1015
g76
I3
ssg77
Nsg70
(lp1016
g63
(g79
g65
NtRp1017
(dp1018
g68
(dp1019
sg77
g1013
sg70
(lp1020
g63
(g84
g65
NtRp1021
(dp1022
g68
(dp1023
g88
g89
ssg77
g1017
sg70
(lp1024
g277
asbag63
(g84
g65
NtRp1025
(dp1026
g68
(dp1027
g95
g96
ssg77
g1017
sg70
(lp1028
S':'
asbag63
(g84
g65
NtRp1029
(dp1030
g68
(dp1031
sg77
g1017
sg70
(lp1032
g63
(g64
g65
NtRp1033
(dp1034
g68
(dp1035
g76
I3
ssg77
g1029
sg70
(lp1036
S''
asbasbasbag63
(g79
g65
NtRp1037
(dp1038
g68
(dp1039
sg77
g1013
sg70
(lp1040
g63
(g84
g65
NtRp1041
(dp1042
g68
(dp1043
g88
g89
ssg77
g1037
sg70
(lp1044
g298
asbag63
(g84
g65
NtRp1045
(dp1046
g68
(dp1047
g95
g96
ssg77
g1037
sg70
(lp1048
S':'
asbag63
(g84
g65
NtRp1049
(dp1050
g68
(dp1051
sg77
g1037
sg70
(lp1052
g63
(g64
g65
NtRp1053
(dp1054
g68
(dp1055
g76
I3
ssg77
g1049
sg70
(lp1056
S''
asbasbasbag63
(g79
g65
NtRp1057
(dp1058
g68
(dp1059
sg77
g1013
sg70
(lp1060
g63
(g84
g65
NtRp1061
(dp1062
g68
(dp1063
g88
g89
ssg77
g1057
sg70
(lp1064
g319
asbag63
(g84
g65
NtRp1065
(dp1066
g68
(dp1067
g95
g96
ssg77
g1057
sg70
(lp1068
S':'
asbag63
(g84
g65
NtRp1069
(dp1070
g68
(dp1071
sg77
g1057
sg70
(lp1072
g63
(g64
g65
NtRp1073
(dp1074
g68
(dp1075
g76
I3
ssg77
g1069
sg70
(lp1076
S''
asbasbasbag63
(g79
g65
NtRp1077
(dp1078
g68
(dp1079
sg77
g1013
sg70
(lp1080
g63
(g84
g65
NtRp1081
(dp1082
g68
(dp1083
g88
g89
ssg77
g1077
sg70
(lp1084
g340
asbag63
(g84
g65
NtRp1085
(dp1086
g68
(dp1087
g95
g96
ssg77
g1077
sg70
(lp1088
S':'
asbag63
(g84
g65
NtRp1089
(dp1090
g68
(dp1091
sg77
g1077
sg70
(lp1092
g63
(g64
g65
NtRp1093
(dp1094
g68
(dp1095
g76
I3
ssg77
g1089
sg70
(lp1096
S''
asbasbasbag63
(g79
g65
NtRp1097
(dp1098
g68
(dp1099
sg77
g1013
sg70
(lp1100
g63
(g84
g65
NtRp1101
(dp1102
g68
(dp1103
g88
g89
ssg77
g1097
sg70
(lp1104
g361
asbag63
(g84
g65
NtRp1105
(dp1106
g68
(dp1107
g95
g96
ssg77
g1097
sg70
(lp1108
S':'
asbag63
(g84
g65
NtRp1109
(dp1110
g68
(dp1111
sg77
g1097
sg70
(lp1112
g63
(g64
g65
NtRp1113
(dp1114
g68
(dp1115
g76
I3
ssg77
g1109
sg70
(lp1116
S''
asbasbasbag63
(g79
g65
NtRp1117
(dp1118
g68
(dp1119
sg77
g1013
sg70
(lp1120
g63
(g84
g65
NtRp1121
(dp1122
g68
(dp1123
g88
g89
ssg77
g1117
sg70
(lp1124
g382
asbag63
(g84
g65
NtRp1125
(dp1126
g68
(dp1127
g95
g96
ssg77
g1117
sg70
(lp1128
S':'
asbag63
(g84
g65
NtRp1129
(dp1130
g68
(dp1131
sg77
g1117
sg70
(lp1132
g63
(g64
g65
NtRp1133
(dp1134
g68
(dp1135
g76
I3
ssg77
g1129
sg70
(lp1136
S''
asbasbasbag63
(g79
g65
NtRp1137
(dp1138
g68
(dp1139
sg77
g1013
sg70
(lp1140
g63
(g84
g65
NtRp1141
(dp1142
g68
(dp1143
g88
g89
ssg77
g1137
sg70
(lp1144
g403
asbag63
(g84
g65
NtRp1145
(dp1146
g68
(dp1147
g95
g96
ssg77
g1137
sg70
(lp1148
S':'
asbag63
(g84
g65
NtRp1149
(dp1150
g68
(dp1151
sg77
g1137
sg70
(lp1152
g63
(g64
g65
NtRp1153
(dp1154
g68
(dp1155
g76
I3
ssg77
g1149
sg70
(lp1156
S''
asbasbasbag63
(g79
g65
NtRp1157
(dp1158
g68
(dp1159
sg77
g1013
sg70
(lp1160
g63
(g84
g65
NtRp1161
(dp1162
g68
(dp1163
g88
g89
ssg77
g1157
sg70
(lp1164
g424
asbag63
(g84
g65
NtRp1165
(dp1166
g68
(dp1167
g95
g96
ssg77
g1157
sg70
(lp1168
S':'
asbag63
(g84
g65
NtRp1169
(dp1170
g68
(dp1171
sg77
g1157
sg70
(lp1172
g63
(g64
g65
NtRp1173
(dp1174
g68
(dp1175
g76
I3
ssg77
g1169
sg70
(lp1176
S''
asbasbasbasbasbasbasbasbasbasbasbag63
(g79
g65
NtRp1177
(dp1178
g68
(dp1179
sg77
g73
sg70
(lp1180
g63
(g84
g65
NtRp1181
(dp1182
g68
(dp1183
g88
g89
ssg77
g1177
sg70
(lp1184
S'env'
p1185
asbag63
(g84
g65
NtRp1186
(dp1187
g68
(dp1188
g95
g96
ssg77
g1177
sg70
(lp1189
S':'
asbag63
(g84
g65
NtRp1190
(dp1191
g68
(dp1192
sg77
g1177
sg70
(lp1193
g63
(g64
g65
NtRp1194
(dp1195
g68
(dp1196
g76
I5
ssg77
g1190
sg70
(lp1197
g63
(g72
g65
NtRp1198
(dp1199
g68
(dp1200
g76
I4
ssg77
Nsg70
(lp1201
g63
(g79
g65
NtRp1202
(dp1203
g68
(dp1204
sg77
g1198
sg70
(lp1205
g63
(g84
g65
NtRp1206
(dp1207
g68
(dp1208
g88
g89
ssg77
g1202
sg70
(lp1209
S'app_folders'
p1210
asbag63
(g84
g65
NtRp1211
(dp1212
g68
(dp1213
g95
g96
ssg77
g1202
sg70
(lp1214
S':'
asbag63
(g84
g65
NtRp1215
(dp1216
g68
(dp1217
sg77
g1202
sg70
(lp1218
g63
(g64
g65
NtRp1219
(dp1220
g68
(dp1221
g76
I4
ssg77
g1215
sg70
(lp1222
S"set(['/Users/bmiller/src/eds/applications/eds/', '/Users/bmiller/src/eds/applications/admin/', '/Users/bmiller/src/eds/applications/welcome/'])"
p1223
asbasbasbag63
(g79
g65
NtRp1224
(dp1225
g68
(dp1226
sg77
g1198
sg70
(lp1227
g63
(g84
g65
NtRp1228
(dp1229
g68
(dp1230
g88
g89
ssg77
g1224
sg70
(lp1231
S'applications_parent'
p1232
asbag63
(g84
g65
NtRp1233
(dp1234
g68
(dp1235
g95
g96
ssg77
g1224
sg70
(lp1236
S':'
asbag63
(g84
g65
NtRp1237
(dp1238
g68
(dp1239
sg77
g1224
sg70
(lp1240
g63
(g64
g65
NtRp1241
(dp1242
g68
(dp1243
g76
I4
ssg77
g1237
sg70
(lp1244
S'/Users/bmiller/src/eds'
p1245
asbasbasbag63
(g79
g65
NtRp1246
(dp1247
g68
(dp1248
sg77
g1198
sg70
(lp1249
g63
(g84
g65
NtRp1250
(dp1251
g68
(dp1252
g88
g89
ssg77
g1246
sg70
(lp1253
S'cmd_args'
p1254
asbag63
(g84
g65
NtRp1255
(dp1256
g68
(dp1257
g95
g96
ssg77
g1246
sg70
(lp1258
S':'
asbag63
(g84
g65
NtRp1259
(dp1260
g68
(dp1261
sg77
g1246
sg70
(lp1262
g63
(g64
g65
NtRp1263
(dp1264
g68
(dp1265
g76
I4
ssg77
g1259
sg70
(lp1266
g63
(g72
g65
NtRp1267
(dp1268
g68
(dp1269
g76
I3
ssg77
Nsg70
(lp1270
sbasbasbasbag63
(g79
g65
NtRp1271
(dp1272
g68
(dp1273
sg77
g1198
sg70
(lp1274
g63
(g84
g65
NtRp1275
(dp1276
g68
(dp1277
g88
g89
ssg77
g1271
sg70
(lp1278
S'cmd_options'
p1279
asbag63
(g84
g65
NtRp1280
(dp1281
g68
(dp1282
g95
g96
ssg77
g1271
sg70
(lp1283
S':'
asbag63
(g84
g65
NtRp1284
(dp1285
g68
(dp1286
sg77
g1271
sg70
(lp1287
g63
(g64
g65
NtRp1288
(dp1289
g68
(dp1290
g76
I4
ssg77
g1284
sg70
(lp1291
S"<Values at 0x104846f80: {'verbose': False, 'ip': '127.0.0.1', 'shutdown_timeout': 5, 'taskbar': False, 'nocron': False, 'pid_filename': 'httpserver.pid', 'maxthreads': None, 'softcron': False, 'server_name': 'chronos.local', 'bpython': False, 'nogui': False, 'port': 8000, 'extcron': False, 'debuglevel': 30, 'test': None, 'folder': '/Users/bmiller/src/eds', 'config': '', 'import_models': False, 'winservice': '', 'shell': None, 'run': '', 'log_filename': 'httpserver.log', 'args': [''], 'socket_timeout': 1, 'ssl_ca_certificate': None, 'scheduler': None, 'profiler_filename': None, 'ssl_private_key': '', 'password': '<ask>', 'request_queue_size': 5, 'ssl_certificate': '', 'cronjob': False, 'numthreads': None, 'quiet': False, 'interfaces': None, 'minthreads': None, 'timeout': 10, 'plain': False, 'nobanner': False}>"
p1292
asbasbasbag63
(g79
g65
NtRp1293
(dp1294
g68
(dp1295
sg77
g1198
sg70
(lp1296
g63
(g84
g65
NtRp1297
(dp1298
g68
(dp1299
g88
g89
ssg77
g1293
sg70
(lp1300
S'db_sessions'
p1301
asbag63
(g84
g65
NtRp1302
(dp1303
g68
(dp1304
g95
g96
ssg77
g1293
sg70
(lp1305
S':'
asbag63
(g84
g65
NtRp1306
(dp1307
g68
(dp1308
sg77
g1293
sg70
(lp1309
g63
(g64
g65
NtRp1310
(dp1311
g68
(dp1312
g76
I4
ssg77
g1306
sg70
(lp1313
S'set([])'
p1314
asbasbasbag63
(g79
g65
NtRp1315
(dp1316
g68
(dp1317
sg77
g1198
sg70
(lp1318
g63
(g84
g65
NtRp1319
(dp1320
g68
(dp1321
g88
g89
ssg77
g1315
sg70
(lp1322
S'debugging'
p1323
asbag63
(g84
g65
NtRp1324
(dp1325
g68
(dp1326
g95
g96
ssg77
g1315
sg70
(lp1327
S':'
asbag63
(g84
g65
NtRp1328
(dp1329
g68
(dp1330
sg77
g1315
sg70
(lp1331
g63
(g64
g65
NtRp1332
(dp1333
g68
(dp1334
g76
I4
ssg77
g1328
sg70
(lp1335
g106
asbasbasbag63
(g79
g65
NtRp1336
(dp1337
g68
(dp1338
sg77
g1198
sg70
(lp1339
g63
(g84
g65
NtRp1340
(dp1341
g68
(dp1342
g88
g89
ssg77
g1336
sg70
(lp1343
S'gluon_parent'
p1344
asbag63
(g84
g65
NtRp1345
(dp1346
g68
(dp1347
g95
g96
ssg77
g1336
sg70
(lp1348
S':'
asbag63
(g84
g65
NtRp1349
(dp1350
g68
(dp1351
sg77
g1336
sg70
(lp1352
g63
(g64
g65
NtRp1353
(dp1354
g68
(dp1355
g76
I4
ssg77
g1349
sg70
(lp1356
S'/Users/bmiller/src/eds'
p1357
asbasbasbag63
(g79
g65
NtRp1358
(dp1359
g68
(dp1360
sg77
g1198
sg70
(lp1361
g63
(g84
g65
NtRp1362
(dp1363
g68
(dp1364
g88
g89
ssg77
g1358
sg70
(lp1365
S'http_accept'
p1366
asbag63
(g84
g65
NtRp1367
(dp1368
g68
(dp1369
g95
g96
ssg77
g1358
sg70
(lp1370
S':'
asbag63
(g84
g65
NtRp1371
(dp1372
g68
(dp1373
sg77
g1358
sg70
(lp1374
g63
(g64
g65
NtRp1375
(dp1376
g68
(dp1377
g76
I4
ssg77
g1371
sg70
(lp1378
S'text/html,application/xhtml+xml,application/xml;q=0.9,*/*;q=0.8'
p1379
asbasbasbag63
(g79
g65
NtRp1380
(dp1381
g68
(dp1382
sg77
g1198
sg70
(lp1383
g63
(g84
g65
NtRp1384
(dp1385
g68
(dp1386
g88
g89
ssg77
g1380
sg70
(lp1387
S'http_accept_charset'
p1388
asbag63
(g84
g65
NtRp1389
(dp1390
g68
(dp1391
g95
g96
ssg77
g1380
sg70
(lp1392
S':'
asbag63
(g84
g65
NtRp1393
(dp1394
g68
(dp1395
sg77
g1380
sg70
(lp1396
g63
(g64
g65
NtRp1397
(dp1398
g68
(dp1399
g76
I4
ssg77
g1393
sg70
(lp1400
S'ISO-8859-1,utf-8;q=0.7,*;q=0.3'
p1401
asbasbasbag63
(g79
g65
NtRp1402
(dp1403
g68
(dp1404
sg77
g1198
sg70
(lp1405
g63
(g84
g65
NtRp1406
(dp1407
g68
(dp1408
g88
g89
ssg77
g1402
sg70
(lp1409
S'http_accept_encoding'
p1410
asbag63
(g84
g65
NtRp1411
(dp1412
g68
(dp1413
g95
g96
ssg77
g1402
sg70
(lp1414
S':'
asbag63
(g84
g65
NtRp1415
(dp1416
g68
(dp1417
sg77
g1402
sg70
(lp1418
g63
(g64
g65
NtRp1419
(dp1420
g68
(dp1421
g76
I4
ssg77
g1415
sg70
(lp1422
S'gzip,deflate,sdch'
p1423
asbasbasbag63
(g79
g65
NtRp1424
(dp1425
g68
(dp1426
sg77
g1198
sg70
(lp1427
g63
(g84
g65
NtRp1428
(dp1429
g68
(dp1430
g88
g89
ssg77
g1424
sg70
(lp1431
S'http_accept_language'
p1432
asbag63
(g84
g65
NtRp1433
(dp1434
g68
(dp1435
g95
g96
ssg77
g1424
sg70
(lp1436
S':'
asbag63
(g84
g65
NtRp1437
(dp1438
g68
(dp1439
sg77
g1424
sg70
(lp1440
g63
(g64
g65
NtRp1441
(dp1442
g68
(dp1443
g76
I4
ssg77
g1437
sg70
(lp1444
S'en-US,en;q=0.8'
p1445
asbasbasbag63
(g79
g65
NtRp1446
(dp1447
g68
(dp1448
sg77
g1198
sg70
(lp1449
g63
(g84
g65
NtRp1450
(dp1451
g68
(dp1452
g88
g89
ssg77
g1446
sg70
(lp1453
S'http_connection'
p1454
asbag63
(g84
g65
NtRp1455
(dp1456
g68
(dp1457
g95
g96
ssg77
g1446
sg70
(lp1458
S':'
asbag63
(g84
g65
NtRp1459
(dp1460
g68
(dp1461
sg77
g1446
sg70
(lp1462
g63
(g64
g65
NtRp1463
(dp1464
g68
(dp1465
g76
I4
ssg77
g1459
sg70
(lp1466
S'keep-alive'
p1467
asbasbasbag63
(g79
g65
NtRp1468
(dp1469
g68
(dp1470
sg77
g1198
sg70
(lp1471
g63
(g84
g65
NtRp1472
(dp1473
g68
(dp1474
g88
g89
ssg77
g1468
sg70
(lp1475
S'http_cookie'
p1476
asbag63
(g84
g65
NtRp1477
(dp1478
g68
(dp1479
g95
g96
ssg77
g1468
sg70
(lp1480
S':'
asbag63
(g84
g65
NtRp1481
(dp1482
g68
(dp1483
sg77
g1468
sg70
(lp1484
g63
(g64
g65
NtRp1485
(dp1486
g68
(dp1487
g76
I4
ssg77
g1481
sg70
(lp1488
S'__utma=96992031.425123543.1317248902.1317248902.1317248902.1; __utmz=96992031.1317248902.1.1.utmcsr=(direct)|utmccn=(direct)|utmcmd=(none); session_id_thing=127.0.0.1-3e54a661-6ebe-4938-b851-688a3a238bbf; session_id_testeds=127.0.0.1-608b18d8-ad62-478a-825b-cb402d4dfc79; session_id_welcome=127.0.0.1-14e79e78-df08-4622-b603-d83bac61c073; session_id_admin=127.0.0.1-cb11ac90-c0ba-4331-8d8d-6ecc1a3faec9; session_id_eds=127.0.0.1-606c6b2f-5df6-4644-a034-00968e408966'
p1489
asbasbasbag63
(g79
g65
NtRp1490
(dp1491
g68
(dp1492
sg77
g1198
sg70
(lp1493
g63
(g84
g65
NtRp1494
(dp1495
g68
(dp1496
g88
g89
ssg77
g1490
sg70
(lp1497
S'http_host'
p1498
asbag63
(g84
g65
NtRp1499
(dp1500
g68
(dp1501
g95
g96
ssg77
g1490
sg70
(lp1502
S':'
asbag63
(g84
g65
NtRp1503
(dp1504
g68
(dp1505
sg77
g1490
sg70
(lp1506
g63
(g64
g65
NtRp1507
(dp1508
g68
(dp1509
g76
I4
ssg77
g1503
sg70
(lp1510
S'127.0.0.1:8000'
p1511
asbasbasbag63
(g79
g65
NtRp1512
(dp1513
g68
(dp1514
sg77
g1198
sg70
(lp1515
g63
(g84
g65
NtRp1516
(dp1517
g68
(dp1518
g88
g89
ssg77
g1512
sg70
(lp1519
S'http_user_agent'
p1520
asbag63
(g84
g65
NtRp1521
(dp1522
g68
(dp1523
g95
g96
ssg77
g1512
sg70
(lp1524
S':'
asbag63
(g84
g65
NtRp1525
(dp1526
g68
(dp1527
sg77
g1512
sg70
(lp1528
g63
(g64
g65
NtRp1529
(dp1530
g68
(dp1531
g76
I4
ssg77
g1525
sg70
(lp1532
S'Mozilla/5.0 (Macintosh; Intel Mac OS X 10_7_2) AppleWebKit/535.11 (KHTML, like Gecko) Chrome/17.0.963.33 Safari/535.11'
p1533
asbasbasbag63
(g79
g65
NtRp1534
(dp1535
g68
(dp1536
sg77
g1198
sg70
(lp1537
g63
(g84
g65
NtRp1538
(dp1539
g68
(dp1540
g88
g89
ssg77
g1534
sg70
(lp1541
S'is_jython'
p1542
asbag63
(g84
g65
NtRp1543
(dp1544
g68
(dp1545
g95
g96
ssg77
g1534
sg70
(lp1546
S':'
asbag63
(g84
g65
NtRp1547
(dp1548
g68
(dp1549
sg77
g1534
sg70
(lp1550
g63
(g64
g65
NtRp1551
(dp1552
g68
(dp1553
g76
I4
ssg77
g1547
sg70
(lp1554
g106
asbasbasbag63
(g79
g65
NtRp1555
(dp1556
g68
(dp1557
sg77
g1198
sg70
(lp1558
g63
(g84
g65
NtRp1559
(dp1560
g68
(dp1561
g88
g89
ssg77
g1555
sg70
(lp1562
S'is_pypy'
p1563
asbag63
(g84
g65
NtRp1564
(dp1565
g68
(dp1566
g95
g96
ssg77
g1555
sg70
(lp1567
S':'
asbag63
(g84
g65
NtRp1568
(dp1569
g68
(dp1570
sg77
g1555
sg70
(lp1571
g63
(g64
g65
NtRp1572
(dp1573
g68
(dp1574
g76
I4
ssg77
g1568
sg70
(lp1575
g106
asbasbasbag63
(g79
g65
NtRp1576
(dp1577
g68
(dp1578
sg77
g1198
sg70
(lp1579
g63
(g84
g65
NtRp1580
(dp1581
g68
(dp1582
g88
g89
ssg77
g1576
sg70
(lp1583
S'path_info'
p1584
asbag63
(g84
g65
NtRp1585
(dp1586
g68
(dp1587
g95
g96
ssg77
g1576
sg70
(lp1588
S':'
asbag63
(g84
g65
NtRp1589
(dp1590
g68
(dp1591
sg77
g1576
sg70
(lp1592
g63
(g64
g65
NtRp1593
(dp1594
g68
(dp1595
g76
I4
ssg77
g1589
sg70
(lp1596
S'/eds/build/builddoc'
p1597
asbasbasbag63
(g79
g65
NtRp1598
(dp1599
g68
(dp1600
sg77
g1198
sg70
(lp1601
g63
(g84
g65
NtRp1602
(dp1603
g68
(dp1604
g88
g89
ssg77
g1598
sg70
(lp1605
S'query_string'
p1606
asbag63
(g84
g65
NtRp1607
(dp1608
g68
(dp1609
g95
g96
ssg77
g1598
sg70
(lp1610
S':'
asbag63
(g84
g65
NtRp1611
(dp1612
g68
(dp1613
sg77
g1598
sg70
(lp1614
g63
(g64
g65
NtRp1615
(dp1616
g68
(dp1617
g76
I4
ssg77
g1611
sg70
(lp1618
S''
asbasbasbag63
(g79
g65
NtRp1619
(dp1620
g68
(dp1621
sg77
g1198
sg70
(lp1622
g63
(g84
g65
NtRp1623
(dp1624
g68
(dp1625
g88
g89
ssg77
g1619
sg70
(lp1626
S'remote_addr'
p1627
asbag63
(g84
g65
NtRp1628
(dp1629
g68
(dp1630
g95
g96
ssg77
g1619
sg70
(lp1631
S':'
asbag63
(g84
g65
NtRp1632
(dp1633
g68
(dp1634
sg77
g1619
sg70
(lp1635
g63
(g64
g65
NtRp1636
(dp1637
g68
(dp1638
g76
I4
ssg77
g1632
sg70
(lp1639
g196
asbasbasbag63
(g79
g65
NtRp1640
(dp1641
g68
(dp1642
sg77
g1198
sg70
(lp1643
g63
(g84
g65
NtRp1644
(dp1645
g68
(dp1646
g88
g89
ssg77
g1640
sg70
(lp1647
S'remote_port'
p1648
asbag63
(g84
g65
NtRp1649
(dp1650
g68
(dp1651
g95
g96
ssg77
g1640
sg70
(lp1652
S':'
asbag63
(g84
g65
NtRp1653
(dp1654
g68
(dp1655
sg77
g1640
sg70
(lp1656
g63
(g64
g65
NtRp1657
(dp1658
g68
(dp1659
g76
I4
ssg77
g1653
sg70
(lp1660
S'55854'
p1661
asbasbasbag63
(g79
g65
NtRp1662
(dp1663
g68
(dp1664
sg77
g1198
sg70
(lp1665
g63
(g84
g65
NtRp1666
(dp1667
g68
(dp1668
g88
g89
ssg77
g1662
sg70
(lp1669
S'request_method'
p1670
asbag63
(g84
g65
NtRp1671
(dp1672
g68
(dp1673
g95
g96
ssg77
g1662
sg70
(lp1674
S':'
asbag63
(g84
g65
NtRp1675
(dp1676
g68
(dp1677
sg77
g1662
sg70
(lp1678
g63
(g64
g65
NtRp1679
(dp1680
g68
(dp1681
g76
I4
ssg77
g1675
sg70
(lp1682
S'GET'
p1683
asbasbasbag63
(g79
g65
NtRp1684
(dp1685
g68
(dp1686
sg77
g1198
sg70
(lp1687
g63
(g84
g65
NtRp1688
(dp1689
g68
(dp1690
g88
g89
ssg77
g1684
sg70
(lp1691
S'script_name'
p1692
asbag63
(g84
g65
NtRp1693
(dp1694
g68
(dp1695
g95
g96
ssg77
g1684
sg70
(lp1696
S':'
asbag63
(g84
g65
NtRp1697
(dp1698
g68
(dp1699
sg77
g1684
sg70
(lp1700
g63
(g64
g65
NtRp1701
(dp1702
g68
(dp1703
g76
I4
ssg77
g1697
sg70
(lp1704
S''
asbasbasbag63
(g79
g65
NtRp1705
(dp1706
g68
(dp1707
sg77
g1198
sg70
(lp1708
g63
(g84
g65
NtRp1709
(dp1710
g68
(dp1711
g88
g89
ssg77
g1705
sg70
(lp1712
S'server_name'
p1713
asbag63
(g84
g65
NtRp1714
(dp1715
g68
(dp1716
g95
g96
ssg77
g1705
sg70
(lp1717
S':'
asbag63
(g84
g65
NtRp1718
(dp1719
g68
(dp1720
sg77
g1705
sg70
(lp1721
g63
(g64
g65
NtRp1722
(dp1723
g68
(dp1724
g76
I4
ssg77
g1718
sg70
(lp1725
S'chronos.local'
p1726
asbasbasbag63
(g79
g65
NtRp1727
(dp1728
g68
(dp1729
sg77
g1198
sg70
(lp1730
g63
(g84
g65
NtRp1731
(dp1732
g68
(dp1733
g88
g89
ssg77
g1727
sg70
(lp1734
S'server_port'
p1735
asbag63
(g84
g65
NtRp1736
(dp1737
g68
(dp1738
g95
g96
ssg77
g1727
sg70
(lp1739
S':'
asbag63
(g84
g65
NtRp1740
(dp1741
g68
(dp1742
sg77
g1727
sg70
(lp1743
g63
(g64
g65
NtRp1744
(dp1745
g68
(dp1746
g76
I4
ssg77
g1740
sg70
(lp1747
S'8000'
p1748
asbasbasbag63
(g79
g65
NtRp1749
(dp1750
g68
(dp1751
sg77
g1198
sg70
(lp1752
g63
(g84
g65
NtRp1753
(dp1754
g68
(dp1755
g88
g89
ssg77
g1749
sg70
(lp1756
S'server_protocol'
p1757
asbag63
(g84
g65
NtRp1758
(dp1759
g68
(dp1760
g95
g96
ssg77
g1749
sg70
(lp1761
S':'
asbag63
(g84
g65
NtRp1762
(dp1763
g68
(dp1764
sg77
g1749
sg70
(lp1765
g63
(g64
g65
NtRp1766
(dp1767
g68
(dp1768
g76
I4
ssg77
g1762
sg70
(lp1769
S'HTTP/1.1'
p1770
asbasbasbag63
(g79
g65
NtRp1771
(dp1772
g68
(dp1773
sg77
g1198
sg70
(lp1774
g63
(g84
g65
NtRp1775
(dp1776
g68
(dp1777
g88
g89
ssg77
g1771
sg70
(lp1778
S'server_software'
p1779
asbag63
(g84
g65
NtRp1780
(dp1781
g68
(dp1782
g95
g96
ssg77
g1771
sg70
(lp1783
S':'
asbag63
(g84
g65
NtRp1784
(dp1785
g68
(dp1786
sg77
g1771
sg70
(lp1787
g63
(g64
g65
NtRp1788
(dp1789
g68
(dp1790
g76
I4
ssg77
g1784
sg70
(lp1791
S'Rocket 1.2.4'
p1792
asbasbasbag63
(g79
g65
NtRp1793
(dp1794
g68
(dp1795
sg77
g1198
sg70
(lp1796
g63
(g84
g65
NtRp1797
(dp1798
g68
(dp1799
g88
g89
ssg77
g1793
sg70
(lp1800
S'web2py_crontype'
p1801
asbag63
(g84
g65
NtRp1802
(dp1803
g68
(dp1804
g95
g96
ssg77
g1793
sg70
(lp1805
S':'
asbag63
(g84
g65
NtRp1806
(dp1807
g68
(dp1808
sg77
g1793
sg70
(lp1809
g63
(g64
g65
NtRp1810
(dp1811
g68
(dp1812
g76
I4
ssg77
g1806
sg70
(lp1813
S'hard'
p1814
asbasbasbag63
(g79
g65
NtRp1815
(dp1816
g68
(dp1817
sg77
g1198
sg70
(lp1818
g63
(g84
g65
NtRp1819
(dp1820
g68
(dp1821
g88
g89
ssg77
g1815
sg70
(lp1822
S'web2py_path'
p1823
asbag63
(g84
g65
NtRp1824
(dp1825
g68
(dp1826
g95
g96
ssg77
g1815
sg70
(lp1827
S':'
asbag63
(g84
g65
NtRp1828
(dp1829
g68
(dp1830
sg77
g1815
sg70
(lp1831
g63
(g64
g65
NtRp1832
(dp1833
g68
(dp1834
g76
I4
ssg77
g1828
sg70
(lp1835
g1245
asbasbasbag63
(g79
g65
NtRp1836
(dp1837
g68
(dp1838
sg77
g1198
sg70
(lp1839
g63
(g84
g65
NtRp1840
(dp1841
g68
(dp1842
g88
g89
ssg77
g1836
sg70
(lp1843
S'web2py_version'
p1844
asbag63
(g84
g65
NtRp1845
(dp1846
g68
(dp1847
g95
g96
ssg77
g1836
sg70
(lp1848
S':'
asbag63
(g84
g65
NtRp1849
(dp1850
g68
(dp1851
sg77
g1836
sg70
(lp1852
g63
(g64
g65
NtRp1853
(dp1854
g68
(dp1855
g76
I4
ssg77
g1849
sg70
(lp1856
g63
(g72
g65
NtRp1857
(dp1858
g68
(dp1859
g76
I3
ssg77
Nsg70
(lp1860
g63
(g79
g65
NtRp1861
(dp1862
g68
(dp1863
sg77
g1857
sg70
(lp1864
g63
(g84
g65
NtRp1865
(dp1866
g68
(dp1867
sg77
g1861
sg70
(lp1868
g63
(g64
g65
NtRp1869
(dp1870
g68
(dp1871
g76
I3
ssg77
g1865
sg70
(lp1872
S'1'
asbasbasbag63
(g79
g65
NtRp1873
(dp1874
g68
(dp1875
sg77
g1857
sg70
(lp1876
g63
(g84
g65
NtRp1877
(dp1878
g68
(dp1879
sg77
g1873
sg70
(lp1880
g63
(g64
g65
NtRp1881
(dp1882
g68
(dp1883
g76
I3
ssg77
g1877
sg70
(lp1884
S'99'
p1885
asbasbasbag63
(g79
g65
NtRp1886
(dp1887
g68
(dp1888
sg77
g1857
sg70
(lp1889
g63
(g84
g65
NtRp1890
(dp1891
g68
(dp1892
sg77
g1886
sg70
(lp1893
g63
(g64
g65
NtRp1894
(dp1895
g68
(dp1896
g76
I3
ssg77
g1890
sg70
(lp1897
S'4'
asbasbasbag63
(g79
g65
NtRp1898
(dp1899
g68
(dp1900
sg77
g1857
sg70
(lp1901
g63
(g84
g65
NtRp1902
(dp1903
g68
(dp1904
sg77
g1898
sg70
(lp1905
g63
(g64
g65
NtRp1906
(dp1907
g68
(dp1908
g76
I3
ssg77
g1902
sg70
(lp1909
S'datetime.datetime(2011, 12, 14, 14, 46, 14)'
p1910
asbasbasbag63
(g79
g65
NtRp1911
(dp1912
g68
(dp1913
sg77
g1857
sg70
(lp1914
g63
(g84
g65
NtRp1915
(dp1916
g68
(dp1917
sg77
g1911
sg70
(lp1918
g63
(g64
g65
NtRp1919
(dp1920
g68
(dp1921
g76
I3
ssg77
g1915
sg70
(lp1922
S'stable'
p1923
asbasbasbasbasbasbasbag63
(g79
g65
NtRp1924
(dp1925
g68
(dp1926
sg77
g1198
sg70
(lp1927
g63
(g84
g65
NtRp1928
(dp1929
g68
(dp1930
g88
g89
ssg77
g1924
sg70
(lp1931
S'wsgi_errors'
p1932
asbag63
(g84
g65
NtRp1933
(dp1934
g68
(dp1935
g95
g96
ssg77
g1924
sg70
(lp1936
S':'
asbag63
(g84
g65
NtRp1937
(dp1938
g68
(dp1939
sg77
g1924
sg70
(lp1940
g63
(g64
g65
NtRp1941
(dp1942
g68
(dp1943
g76
I4
ssg77
g1937
sg70
(lp1944
S"<open file '<stderr>', mode 'w' at 0x10403c270>"
p1945
asbasbasbag63
(g79
g65
NtRp1946
(dp1947
g68
(dp1948
sg77
g1198
sg70
(lp1949
g63
(g84
g65
NtRp1950
(dp1951
g68
(dp1952
g88
g89
ssg77
g1946
sg70
(lp1953
S'wsgi_file_wrapper'
p1954
asbag63
(g84
g65
NtRp1955
(dp1956
g68
(dp1957
g95
g96
ssg77
g1946
sg70
(lp1958
S':'
asbag63
(g84
g65
NtRp1959
(dp1960
g68
(dp1961
sg77
g1946
sg70
(lp1962
g63
(g64
g65
NtRp1963
(dp1964
g68
(dp1965
g76
I4
ssg77
g1959
sg70
(lp1966
S'<class wsgiref.util.FileWrapper at 0x1049f1598>'
p1967
asbasbasbag63
(g79
g65
NtRp1968
(dp1969
g68
(dp1970
sg77
g1198
sg70
(lp1971
g63
(g84
g65
NtRp1972
(dp1973
g68
(dp1974
g88
g89
ssg77
g1968
sg70
(lp1975
S'wsgi_input'
p1976
asbag63
(g84
g65
NtRp1977
(dp1978
g68
(dp1979
g95
g96
ssg77
g1968
sg70
(lp1980
S':'
asbag63
(g84
g65
NtRp1981
(dp1982
g68
(dp1983
sg77
g1968
sg70
(lp1984
g63
(g64
g65
NtRp1985
(dp1986
g68
(dp1987
g76
I4
ssg77
g1981
sg70
(lp1988
S'<socket._fileobject object at 0x1093e4cd0>'
p1989
asbasbasbag63
(g79
g65
NtRp1990
(dp1991
g68
(dp1992
sg77
g1198
sg70
(lp1993
g63
(g84
g65
NtRp1994
(dp1995
g68
(dp1996
g88
g89
ssg77
g1990
sg70
(lp1997
S'wsgi_multiprocess'
p1998
asbag63
(g84
g65
NtRp1999
(dp2000
g68
(dp2001
g95
g96
ssg77
g1990
sg70
(lp2002
S':'
asbag63
(g84
g65
NtRp2003
(dp2004
g68
(dp2005
sg77
g1990
sg70
(lp2006
g63
(g64
g65
NtRp2007
(dp2008
g68
(dp2009
g76
I4
ssg77
g2003
sg70
(lp2010
g106
asbasbasbag63
(g79
g65
NtRp2011
(dp2012
g68
(dp2013
sg77
g1198
sg70
(lp2014
g63
(g84
g65
NtRp2015
(dp2016
g68
(dp2017
g88
g89
ssg77
g2011
sg70
(lp2018
S'wsgi_multithread'
p2019
asbag63
(g84
g65
NtRp2020
(dp2021
g68
(dp2022
g95
g96
ssg77
g2011
sg70
(lp2023
S':'
asbag63
(g84
g65
NtRp2024
(dp2025
g68
(dp2026
sg77
g2011
sg70
(lp2027
g63
(g64
g65
NtRp2028
(dp2029
g68
(dp2030
g76
I4
ssg77
g2024
sg70
(lp2031
S'True'
p2032
asbasbasbag63
(g79
g65
NtRp2033
(dp2034
g68
(dp2035
sg77
g1198
sg70
(lp2036
g63
(g84
g65
NtRp2037
(dp2038
g68
(dp2039
g88
g89
ssg77
g2033
sg70
(lp2040
S'wsgi_run_once'
p2041
asbag63
(g84
g65
NtRp2042
(dp2043
g68
(dp2044
g95
g96
ssg77
g2033
sg70
(lp2045
S':'
asbag63
(g84
g65
NtRp2046
(dp2047
g68
(dp2048
sg77
g2033
sg70
(lp2049
g63
(g64
g65
NtRp2050
(dp2051
g68
(dp2052
g76
I4
ssg77
g2046
sg70
(lp2053
g106
asbasbasbag63
(g79
g65
NtRp2054
(dp2055
g68
(dp2056
sg77
g1198
sg70
(lp2057
g63
(g84
g65
NtRp2058
(dp2059
g68
(dp2060
g88
g89
ssg77
g2054
sg70
(lp2061
S'wsgi_url_scheme'
p2062
asbag63
(g84
g65
NtRp2063
(dp2064
g68
(dp2065
g95
g96
ssg77
g2054
sg70
(lp2066
S':'
asbag63
(g84
g65
NtRp2067
(dp2068
g68
(dp2069
sg77
g2054
sg70
(lp2070
g63
(g64
g65
NtRp2071
(dp2072
g68
(dp2073
g76
I4
ssg77
g2067
sg70
(lp2074
S'http'
p2075
asbasbasbag63
(g79
g65
NtRp2076
(dp2077
g68
(dp2078
sg77
g1198
sg70
(lp2079
g63
(g84
g65
NtRp2080
(dp2081
g68
(dp2082
g88
g89
ssg77
g2076
sg70
(lp2083
S'wsgi_version'
p2084
asbag63
(g84
g65
NtRp2085
(dp2086
g68
(dp2087
g95
g96
ssg77
g2076
sg70
(lp2088
S':'
asbag63
(g84
g65
NtRp2089
(dp2090
g68
(dp2091
sg77
g2076
sg70
(lp2092
g63
(g64
g65
NtRp2093
(dp2094
g68
(dp2095
g76
I4
ssg77
g2089
sg70
(lp2096
g63
(g72
g65
NtRp2097
(dp2098
g68
(dp2099
g76
I3
ssg77
Nsg70
(lp2100
g63
(g79
g65
NtRp2101
(dp2102
g68
(dp2103
sg77
g2097
sg70
(lp2104
g63
(g84
g65
NtRp2105
(dp2106
g68
(dp2107
sg77
g2101
sg70
(lp2108
g63
(g64
g65
NtRp2109
(dp2110
g68
(dp2111
g76
I3
ssg77
g2105
sg70
(lp2112
S'1'
asbasbasbag63
(g79
g65
NtRp2113
(dp2114
g68
(dp2115
sg77
g2097
sg70
(lp2116
g63
(g84
g65
NtRp2117
(dp2118
g68
(dp2119
sg77
g2113
sg70
(lp2120
g63
(g64
g65
NtRp2121
(dp2122
g68
(dp2123
g76
I3
ssg77
g2117
sg70
(lp2124
S'0'
asbasbasbasbasbasbasbasbasbasbasbag63
(g79
g65
NtRp2125
(dp2126
g68
(dp2127
sg77
g73
sg70
(lp2128
g63
(g84
g65
NtRp2129
(dp2130
g68
(dp2131
g88
g89
ssg77
g2125
sg70
(lp2132
S'extension'
p2133
asbag63
(g84
g65
NtRp2134
(dp2135
g68
(dp2136
g95
g96
ssg77
g2125
sg70
(lp2137
S':'
asbag63
(g84
g65
NtRp2138
(dp2139
g68
(dp2140
sg77
g2125
sg70
(lp2141
g63
(g64
g65
NtRp2142
(dp2143
g68
(dp2144
g76
I5
ssg77
g2138
sg70
(lp2145
S'html'
p2146
asbasbasbag63
(g79
g65
NtRp2147
(dp2148
g68
(dp2149
sg77
g73
sg70
(lp2150
g63
(g84
g65
NtRp2151
(dp2152
g68
(dp2153
g88
g89
ssg77
g2147
sg70
(lp2154
S'folder'
p2155
asbag63
(g84
g65
NtRp2156
(dp2157
g68
(dp2158
g95
g96
ssg77
g2147
sg70
(lp2159
S':'
asbag63
(g84
g65
NtRp2160
(dp2161
g68
(dp2162
sg77
g2147
sg70
(lp2163
g63
(g64
g65
NtRp2164
(dp2165
g68
(dp2166
g76
I5
ssg77
g2160
sg70
(lp2167
S'/Users/bmiller/src/eds/applications/eds/'
p2168
asbasbasbag63
(g79
g65
NtRp2169
(dp2170
g68
(dp2171
sg77
g73
sg70
(lp2172
g63
(g84
g65
NtRp2173
(dp2174
g68
(dp2175
g88
g89
ssg77
g2169
sg70
(lp2176
S'function'
p2177
asbag63
(g84
g65
NtRp2178
(dp2179
g68
(dp2180
g95
g96
ssg77
g2169
sg70
(lp2181
S':'
asbag63
(g84
g65
NtRp2182
(dp2183
g68
(dp2184
sg77
g2169
sg70
(lp2185
g63
(g64
g65
NtRp2186
(dp2187
g68
(dp2188
g76
I5
ssg77
g2182
sg70
(lp2189
S'builddoc'
p2190
asbasbasbag63
(g79
g65
NtRp2191
(dp2192
g68
(dp2193
sg77
g73
sg70
(lp2194
g63
(g84
g65
NtRp2195
(dp2196
g68
(dp2197
g88
g89
ssg77
g2191
sg70
(lp2198
S'get_vars'
p2199
asbag63
(g84
g65
NtRp2200
(dp2201
g68
(dp2202
g95
g96
ssg77
g2191
sg70
(lp2203
S':'
asbag63
(g84
g65
NtRp2204
(dp2205
g68
(dp2206
sg77
g2191
sg70
(lp2207
g63
(g64
g65
NtRp2208
(dp2209
g68
(dp2210
g76
I5
ssg77
g2204
sg70
(lp2211
g63
(g72
g65
NtRp2212
(dp2213
g68
(dp2214
g76
I4
ssg77
Nsg70
(lp2215
sbasbasbasbag63
(g79
g65
NtRp2216
(dp2217
g68
(dp2218
sg77
g73
sg70
(lp2219
g63
(g84
g65
NtRp2220
(dp2221
g68
(dp2222
g88
g89
ssg77
g2216
sg70
(lp2223
S'global_settings'
p2224
asbag63
(g84
g65
NtRp2225
(dp2226
g68
(dp2227
g95
g96
ssg77
g2216
sg70
(lp2228
S':'
asbag63
(g84
g65
NtRp2229
(dp2230
g68
(dp2231
sg77
g2216
sg70
(lp2232
g63
(g64
g65
NtRp2233
(dp2234
g68
(dp2235
g76
I5
ssg77
g2229
sg70
(lp2236
g63
(g72
g65
NtRp2237
(dp2238
g68
(dp2239
g76
I4
ssg77
Nsg70
(lp2240
g63
(g79
g65
NtRp2241
(dp2242
g68
(dp2243
sg77
g2237
sg70
(lp2244
g63
(g84
g65
NtRp2245
(dp2246
g68
(dp2247
g88
g89
ssg77
g2241
sg70
(lp2248
g1210
asbag63
(g84
g65
NtRp2249
(dp2250
g68
(dp2251
g95
g96
ssg77
g2241
sg70
(lp2252
S':'
asbag63
(g84
g65
NtRp2253
(dp2254
g68
(dp2255
sg77
g2241
sg70
(lp2256
g63
(g64
g65
NtRp2257
(dp2258
g68
(dp2259
g76
I4
ssg77
g2253
sg70
(lp2260
S"set(['/Users/bmiller/src/eds/applications/eds/', '/Users/bmiller/src/eds/applications/admin/', '/Users/bmiller/src/eds/applications/welcome/'])"
p2261
asbasbasbag63
(g79
g65
NtRp2262
(dp2263
g68
(dp2264
sg77
g2237
sg70
(lp2265
g63
(g84
g65
NtRp2266
(dp2267
g68
(dp2268
g88
g89
ssg77
g2262
sg70
(lp2269
g1232
asbag63
(g84
g65
NtRp2270
(dp2271
g68
(dp2272
g95
g96
ssg77
g2262
sg70
(lp2273
S':'
asbag63
(g84
g65
NtRp2274
(dp2275
g68
(dp2276
sg77
g2262
sg70
(lp2277
g63
(g64
g65
NtRp2278
(dp2279
g68
(dp2280
g76
I4
ssg77
g2274
sg70
(lp2281
g1245
asbasbasbag63
(g79
g65
NtRp2282
(dp2283
g68
(dp2284
sg77
g2237
sg70
(lp2285
g63
(g84
g65
NtRp2286
(dp2287
g68
(dp2288
g88
g89
ssg77
g2282
sg70
(lp2289
g1254
asbag63
(g84
g65
NtRp2290
(dp2291
g68
(dp2292
g95
g96
ssg77
g2282
sg70
(lp2293
S':'
asbag63
(g84
g65
NtRp2294
(dp2295
g68
(dp2296
sg77
g2282
sg70
(lp2297
g63
(g64
g65
NtRp2298
(dp2299
g68
(dp2300
g76
I4
ssg77
g2294
sg70
(lp2301
g63
(g72
g65
NtRp2302
(dp2303
g68
(dp2304
g76
I3
ssg77
Nsg70
(lp2305
sbasbasbasbag63
(g79
g65
NtRp2306
(dp2307
g68
(dp2308
sg77
g2237
sg70
(lp2309
g63
(g84
g65
NtRp2310
(dp2311
g68
(dp2312
g88
g89
ssg77
g2306
sg70
(lp2313
g1279
asbag63
(g84
g65
NtRp2314
(dp2315
g68
(dp2316
g95
g96
ssg77
g2306
sg70
(lp2317
S':'
asbag63
(g84
g65
NtRp2318
(dp2319
g68
(dp2320
sg77
g2306
sg70
(lp2321
g63
(g64
g65
NtRp2322
(dp2323
g68
(dp2324
g76
I4
ssg77
g2318
sg70
(lp2325
S"<Values at 0x104846f80: {'verbose': False, 'ip': '127.0.0.1', 'shutdown_timeout': 5, 'taskbar': False, 'nocron': False, 'pid_filename': 'httpserver.pid', 'maxthreads': None, 'softcron': False, 'server_name': 'chronos.local', 'bpython': False, 'nogui': False, 'port': 8000, 'extcron': False, 'debuglevel': 30, 'test': None, 'folder': '/Users/bmiller/src/eds', 'config': '', 'import_models': False, 'winservice': '', 'shell': None, 'run': '', 'log_filename': 'httpserver.log', 'args': [''], 'socket_timeout': 1, 'ssl_ca_certificate': None, 'scheduler': None, 'profiler_filename': None, 'ssl_private_key': '', 'password': '<ask>', 'request_queue_size': 5, 'ssl_certificate': '', 'cronjob': False, 'numthreads': None, 'quiet': False, 'interfaces': None, 'minthreads': None, 'timeout': 10, 'plain': False, 'nobanner': False}>"
p2326
asbasbasbag63
(g79
g65
NtRp2327
(dp2328
g68
(dp2329
sg77
g2237
sg70
(lp2330
g63
(g84
g65
NtRp2331
(dp2332
g68
(dp2333
g88
g89
ssg77
g2327
sg70
(lp2334
g1301
asbag63
(g84
g65
NtRp2335
(dp2336
g68
(dp2337
g95
g96
ssg77
g2327
sg70
(lp2338
S':'
asbag63
(g84
g65
NtRp2339
(dp2340
g68
(dp2341
sg77
g2327
sg70
(lp2342
g63
(g64
g65
NtRp2343
(dp2344
g68
(dp2345
g76
I4
ssg77
g2339
sg70
(lp2346
S'set([])'
p2347
asbasbasbag63
(g79
g65
NtRp2348
(dp2349
g68
(dp2350
sg77
g2237
sg70
(lp2351
g63
(g84
g65
NtRp2352
(dp2353
g68
(dp2354
g88
g89
ssg77
g2348
sg70
(lp2355
g1323
asbag63
(g84
g65
NtRp2356
(dp2357
g68
(dp2358
g95
g96
ssg77
g2348
sg70
(lp2359
S':'
asbag63
(g84
g65
NtRp2360
(dp2361
g68
(dp2362
sg77
g2348
sg70
(lp2363
g63
(g64
g65
NtRp2364
(dp2365
g68
(dp2366
g76
I4
ssg77
g2360
sg70
(lp2367
g106
asbasbasbag63
(g79
g65
NtRp2368
(dp2369
g68
(dp2370
sg77
g2237
sg70
(lp2371
g63
(g84
g65
NtRp2372
(dp2373
g68
(dp2374
g88
g89
ssg77
g2368
sg70
(lp2375
g1344
asbag63
(g84
g65
NtRp2376
(dp2377
g68
(dp2378
g95
g96
ssg77
g2368
sg70
(lp2379
S':'
asbag63
(g84
g65
NtRp2380
(dp2381
g68
(dp2382
sg77
g2368
sg70
(lp2383
g63
(g64
g65
NtRp2384
(dp2385
g68
(dp2386
g76
I4
ssg77
g2380
sg70
(lp2387
g1357
asbasbasbag63
(g79
g65
NtRp2388
(dp2389
g68
(dp2390
sg77
g2237
sg70
(lp2391
g63
(g84
g65
NtRp2392
(dp2393
g68
(dp2394
g88
g89
ssg77
g2388
sg70
(lp2395
g1542
asbag63
(g84
g65
NtRp2396
(dp2397
g68
(dp2398
g95
g96
ssg77
g2388
sg70
(lp2399
S':'
asbag63
(g84
g65
NtRp2400
(dp2401
g68
(dp2402
sg77
g2388
sg70
(lp2403
g63
(g64
g65
NtRp2404
(dp2405
g68
(dp2406
g76
I4
ssg77
g2400
sg70
(lp2407
g106
asbasbasbag63
(g79
g65
NtRp2408
(dp2409
g68
(dp2410
sg77
g2237
sg70
(lp2411
g63
(g84
g65
NtRp2412
(dp2413
g68
(dp2414
g88
g89
ssg77
g2408
sg70
(lp2415
g1563
asbag63
(g84
g65
NtRp2416
(dp2417
g68
(dp2418
g95
g96
ssg77
g2408
sg70
(lp2419
S':'
asbag63
(g84
g65
NtRp2420
(dp2421
g68
(dp2422
sg77
g2408
sg70
(lp2423
g63
(g64
g65
NtRp2424
(dp2425
g68
(dp2426
g76
I4
ssg77
g2420
sg70
(lp2427
g106
asbasbasbag63
(g79
g65
NtRp2428
(dp2429
g68
(dp2430
sg77
g2237
sg70
(lp2431
g63
(g84
g65
NtRp2432
(dp2433
g68
(dp2434
g88
g89
ssg77
g2428
sg70
(lp2435
g1801
asbag63
(g84
g65
NtRp2436
(dp2437
g68
(dp2438
g95
g96
ssg77
g2428
sg70
(lp2439
S':'
asbag63
(g84
g65
NtRp2440
(dp2441
g68
(dp2442
sg77
g2428
sg70
(lp2443
g63
(g64
g65
NtRp2444
(dp2445
g68
(dp2446
g76
I4
ssg77
g2440
sg70
(lp2447
g1814
asbasbasbag63
(g79
g65
NtRp2448
(dp2449
g68
(dp2450
sg77
g2237
sg70
(lp2451
g63
(g84
g65
NtRp2452
(dp2453
g68
(dp2454
g88
g89
ssg77
g2448
sg70
(lp2455
g1844
asbag63
(g84
g65
NtRp2456
(dp2457
g68
(dp2458
g95
g96
ssg77
g2448
sg70
(lp2459
S':'
asbag63
(g84
g65
NtRp2460
(dp2461
g68
(dp2462
sg77
g2448
sg70
(lp2463
g63
(g64
g65
NtRp2464
(dp2465
g68
(dp2466
g76
I4
ssg77
g2460
sg70
(lp2467
g63
(g72
g65
NtRp2468
(dp2469
g68
(dp2470
g76
I3
ssg77
Nsg70
(lp2471
g63
(g79
g65
NtRp2472
(dp2473
g68
(dp2474
sg77
g2468
sg70
(lp2475
g63
(g84
g65
NtRp2476
(dp2477
g68
(dp2478
sg77
g2472
sg70
(lp2479
g63
(g64
g65
NtRp2480
(dp2481
g68
(dp2482
g76
I3
ssg77
g2476
sg70
(lp2483
S'1'
asbasbasbag63
(g79
g65
NtRp2484
(dp2485
g68
(dp2486
sg77
g2468
sg70
(lp2487
g63
(g84
g65
NtRp2488
(dp2489
g68
(dp2490
sg77
g2484
sg70
(lp2491
g63
(g64
g65
NtRp2492
(dp2493
g68
(dp2494
g76
I3
ssg77
g2488
sg70
(lp2495
S'99'
p2496
asbasbasbag63
(g79
g65
NtRp2497
(dp2498
g68
(dp2499
sg77
g2468
sg70
(lp2500
g63
(g84
g65
NtRp2501
(dp2502
g68
(dp2503
sg77
g2497
sg70
(lp2504
g63
(g64
g65
NtRp2505
(dp2506
g68
(dp2507
g76
I3
ssg77
g2501
sg70
(lp2508
S'4'
asbasbasbag63
(g79
g65
NtRp2509
(dp2510
g68
(dp2511
sg77
g2468
sg70
(lp2512
g63
(g84
g65
NtRp2513
(dp2514
g68
(dp2515
sg77
g2509
sg70
(lp2516
g63
(g64
g65
NtRp2517
(dp2518
g68
(dp2519
g76
I3
ssg77
g2513
sg70
(lp2520
S'datetime.datetime(2011, 12, 14, 14, 46, 14)'
p2521
asbasbasbag63
(g79
g65
NtRp2522
(dp2523
g68
(dp2524
sg77
g2468
sg70
(lp2525
g63
(g84
g65
NtRp2526
(dp2527
g68
(dp2528
sg77
g2522
sg70
(lp2529
g63
(g64
g65
NtRp2530
(dp2531
g68
(dp2532
g76
I3
ssg77
g2526
sg70
(lp2533
g1923
asbasbasbasbasbasbasbasbasbasbasbag63
(g79
g65
NtRp2534
(dp2535
g68
(dp2536
sg77
g73
sg70
(lp2537
g63
(g84
g65
NtRp2538
(dp2539
g68
(dp2540
g88
g89
ssg77
g2534
sg70
(lp2541
S'is_https'
p2542
asbag63
(g84
g65
NtRp2543
(dp2544
g68
(dp2545
g95
g96
ssg77
g2534
sg70
(lp2546
S':'
asbag63
(g84
g65
NtRp2547
(dp2548
g68
(dp2549
sg77
g2534
sg70
(lp2550
g63
(g64
g65
NtRp2551
(dp2552
g68
(dp2553
g76
I5
ssg77
g2547
sg70
(lp2554
g106
asbasbasbag63
(g79
g65
NtRp2555
(dp2556
g68
(dp2557
sg77
g73
sg70
(lp2558
g63
(g84
g65
NtRp2559
(dp2560
g68
(dp2561
g88
g89
ssg77
g2555
sg70
(lp2562
S'is_local'
p2563
asbag63
(g84
g65
NtRp2564
(dp2565
g68
(dp2566
g95
g96
ssg77
g2555
sg70
(lp2567
S':'
asbag63
(g84
g65
NtRp2568
(dp2569
g68
(dp2570
sg77
g2555
sg70
(lp2571
g63
(g64
g65
NtRp2572
(dp2573
g68
(dp2574
g76
I5
ssg77
g2568
sg70
(lp2575
g2032
asbasbasbag63
(g79
g65
NtRp2576
(dp2577
g68
(dp2578
sg77
g73
sg70
(lp2579
g63
(g84
g65
NtRp2580
(dp2581
g68
(dp2582
g88
g89
ssg77
g2576
sg70
(lp2583
S'is_restful'
p2584
asbag63
(g84
g65
NtRp2585
(dp2586
g68
(dp2587
g95
g96
ssg77
g2576
sg70
(lp2588
S':'
asbag63
(g84
g65
NtRp2589
(dp2590
g68
(dp2591
sg77
g2576
sg70
(lp2592
g63
(g64
g65
NtRp2593
(dp2594
g68
(dp2595
g76
I5
ssg77
g2589
sg70
(lp2596
g106
asbasbasbag63
(g79
g65
NtRp2597
(dp2598
g68
(dp2599
sg77
g73
sg70
(lp2600
g63
(g84
g65
NtRp2601
(dp2602
g68
(dp2603
g88
g89
ssg77
g2597
sg70
(lp2604
S'now'
p2605
asbag63
(g84
g65
NtRp2606
(dp2607
g68
(dp2608
g95
g96
ssg77
g2597
sg70
(lp2609
S':'
asbag63
(g84
g65
NtRp2610
(dp2611
g68
(dp2612
sg77
g2597
sg70
(lp2613
g63
(g64
g65
NtRp2614
(dp2615
g68
(dp2616
g76
I5
ssg77
g2610
sg70
(lp2617
S'datetime.datetime(2012, 1, 23, 13, 20, 21, 255482)'
p2618
asbasbasbag63
(g79
g65
NtRp2619
(dp2620
g68
(dp2621
sg77
g73
sg70
(lp2622
g63
(g84
g65
NtRp2623
(dp2624
g68
(dp2625
g88
g89
ssg77
g2619
sg70
(lp2626
S'post_vars'
p2627
asbag63
(g84
g65
NtRp2628
(dp2629
g68
(dp2630
g95
g96
ssg77
g2619
sg70
(lp2631
S':'
asbag63
(g84
g65
NtRp2632
(dp2633
g68
(dp2634
sg77
g2619
sg70
(lp2635
g63
(g64
g65
NtRp2636
(dp2637
g68
(dp2638
g76
I5
ssg77
g2632
sg70
(lp2639
g63
(g72
g65
NtRp2640
(dp2641
g68
(dp2642
g76
I4
ssg77
Nsg70
(lp2643
sbasbasbasbag63
(g79
g65
NtRp2644
(dp2645
g68
(dp2646
sg77
g73
sg70
(lp2647
g63
(g84
g65
NtRp2648
(dp2649
g68
(dp2650
g88
g89
ssg77
g2644
sg70
(lp2651
S'url'
p2652
asbag63
(g84
g65
NtRp2653
(dp2654
g68
(dp2655
g95
g96
ssg77
g2644
sg70
(lp2656
S':'
asbag63
(g84
g65
NtRp2657
(dp2658
g68
(dp2659
sg77
g2644
sg70
(lp2660
g63
(g64
g65
NtRp2661
(dp2662
g68
(dp2663
g76
I5
ssg77
g2657
sg70
(lp2664
S'/eds/build/builddoc'
p2665
asbasbasbag63
(g79
g65
NtRp2666
(dp2667
g68
(dp2668
sg77
g73
sg70
(lp2669
g63
(g84
g65
NtRp2670
(dp2671
g68
(dp2672
g88
g89
ssg77
g2666
sg70
(lp2673
S'utcnow'
p2674
asbag63
(g84
g65
NtRp2675
(dp2676
g68
(dp2677
g95
g96
ssg77
g2666
sg70
(lp2678
S':'
asbag63
(g84
g65
NtRp2679
(dp2680
g68
(dp2681
sg77
g2666
sg70
(lp2682
g63
(g64
g65
NtRp2683
(dp2684
g68
(dp2685
g76
I5
ssg77
g2679
sg70
(lp2686
S'datetime.datetime(2012, 1, 23, 19, 20, 21, 255491)'
p2687
asbasbasbag63
(g79
g65
NtRp2688
(dp2689
g68
(dp2690
sg77
g73
sg70
(lp2691
g63
(g84
g65
NtRp2692
(dp2693
g68
(dp2694
g88
g89
ssg77
g2688
sg70
(lp2695
S'uuid'
p2696
asbag63
(g84
g65
NtRp2697
(dp2698
g68
(dp2699
g95
g96
ssg77
g2688
sg70
(lp2700
S':'
asbag63
(g84
g65
NtRp2701
(dp2702
g68
(dp2703
sg77
g2688
sg70
(lp2704
g63
(g64
g65
NtRp2705
(dp2706
g68
(dp2707
g76
I5
ssg77
g2701
sg70
(lp2708
S'eds/127.0.0.1.2012-01-23.13-20-21.c4120127-7241-4f08-a92e-09d074a37d4a'
p2709
asbasbasbag63
(g79
g65
NtRp2710
(dp2711
g68
(dp2712
sg77
g73
sg70
(lp2713
g63
(g84
g65
NtRp2714
(dp2715
g68
(dp2716
g88
g89
ssg77
g2710
sg70
(lp2717
S'vars'
p2718
asbag63
(g84
g65
NtRp2719
(dp2720
g68
(dp2721
g95
g96
ssg77
g2710
sg70
(lp2722
S':'
asbag63
(g84
g65
NtRp2723
(dp2724
g68
(dp2725
sg77
g2710
sg70
(lp2726
g63
(g64
g65
NtRp2727
(dp2728
g68
(dp2729
g76
I5
ssg77
g2723
sg70
(lp2730
g63
(g72
g65
NtRp2731
(dp2732
g68
(dp2733
g76
I4
ssg77
Nsg70
(lp2734
sbasbasbasbag63
(g79
g65
NtRp2735
(dp2736
g68
(dp2737
sg77
g73
sg70
(lp2738
g63
(g84
g65
NtRp2739
(dp2740
g68
(dp2741
g88
g89
ssg77
g2735
sg70
(lp2742
S'wsgi'
p2743
asbag63
(g84
g65
NtRp2744
(dp2745
g68
(dp2746
g95
g96
ssg77
g2735
sg70
(lp2747
S':'
asbag63
(g84
g65
NtRp2748
(dp2749
g68
(dp2750
sg77
g2735
sg70
(lp2751
g63
(g64
g65
NtRp2752
(dp2753
g68
(dp2754
g76
I5
ssg77
g2748
sg70
(lp2755
g63
(g72
g65
NtRp2756
(dp2757
g68
(dp2758
g76
I4
ssg77
Nsg70
(lp2759
g63
(g79
g65
NtRp2760
(dp2761
g68
(dp2762
sg77
g2756
sg70
(lp2763
g63
(g84
g65
NtRp2764
(dp2765
g68
(dp2766
g88
g89
ssg77
g2760
sg70
(lp2767
S'environ'
p2768
asbag63
(g84
g65
NtRp2769
(dp2770
g68
(dp2771
g95
g96
ssg77
g2760
sg70
(lp2772
S':'
asbag63
(g84
g65
NtRp2773
(dp2774
g68
(dp2775
sg77
g2760
sg70
(lp2776
g63
(g64
g65
NtRp2777
(dp2778
g68
(dp2779
g76
I4
ssg77
g2773
sg70
(lp2780
g63
(g72
g65
NtRp2781
(dp2782
g68
(dp2783
g76
I3
ssg77
Nsg70
(lp2784
g63
(g79
g65
NtRp2785
(dp2786
g68
(dp2787
sg77
g2781
sg70
(lp2788
g63
(g84
g65
NtRp2789
(dp2790
g68
(dp2791
g88
g89
ssg77
g2785
sg70
(lp2792
S'HTTP_ACCEPT'
p2793
asbag63
(g84
g65
NtRp2794
(dp2795
g68
(dp2796
g95
g96
ssg77
g2785
sg70
(lp2797
S':'
asbag63
(g84
g65
NtRp2798
(dp2799
g68
(dp2800
sg77
g2785
sg70
(lp2801
g63
(g64
g65
NtRp2802
(dp2803
g68
(dp2804
g76
I3
ssg77
g2798
sg70
(lp2805
g1379
asbasbasbag63
(g79
g65
NtRp2806
(dp2807
g68
(dp2808
sg77
g2781
sg70
(lp2809
g63
(g84
g65
NtRp2810
(dp2811
g68
(dp2812
g88
g89
ssg77
g2806
sg70
(lp2813
S'HTTP_ACCEPT_CHARSET'
p2814
asbag63
(g84
g65
NtRp2815
(dp2816
g68
(dp2817
g95
g96
ssg77
g2806
sg70
(lp2818
S':'
asbag63
(g84
g65
NtRp2819
(dp2820
g68
(dp2821
sg77
g2806
sg70
(lp2822
g63
(g64
g65
NtRp2823
(dp2824
g68
(dp2825
g76
I3
ssg77
g2819
sg70
(lp2826
g1401
asbasbasbag63
(g79
g65
NtRp2827
(dp2828
g68
(dp2829
sg77
g2781
sg70
(lp2830
g63
(g84
g65
NtRp2831
(dp2832
g68
(dp2833
g88
g89
ssg77
g2827
sg70
(lp2834
S'HTTP_ACCEPT_ENCODING'
p2835
asbag63
(g84
g65
NtRp2836
(dp2837
g68
(dp2838
g95
g96
ssg77
g2827
sg70
(lp2839
S':'
asbag63
(g84
g65
NtRp2840
(dp2841
g68
(dp2842
sg77
g2827
sg70
(lp2843
g63
(g64
g65
NtRp2844
(dp2845
g68
(dp2846
g76
I3
ssg77
g2840
sg70
(lp2847
g1423
asbasbasbag63
(g79
g65
NtRp2848
(dp2849
g68
(dp2850
sg77
g2781
sg70
(lp2851
g63
(g84
g65
NtRp2852
(dp2853
g68
(dp2854
g88
g89
ssg77
g2848
sg70
(lp2855
S'HTTP_ACCEPT_LANGUAGE'
p2856
asbag63
(g84
g65
NtRp2857
(dp2858
g68
(dp2859
g95
g96
ssg77
g2848
sg70
(lp2860
S':'
asbag63
(g84
g65
NtRp2861
(dp2862
g68
(dp2863
sg77
g2848
sg70
(lp2864
g63
(g64
g65
NtRp2865
(dp2866
g68
(dp2867
g76
I3
ssg77
g2861
sg70
(lp2868
g1445
asbasbasbag63
(g79
g65
NtRp2869
(dp2870
g68
(dp2871
sg77
g2781
sg70
(lp2872
g63
(g84
g65
NtRp2873
(dp2874
g68
(dp2875
g88
g89
ssg77
g2869
sg70
(lp2876
S'HTTP_CONNECTION'
p2877
asbag63
(g84
g65
NtRp2878
(dp2879
g68
(dp2880
g95
g96
ssg77
g2869
sg70
(lp2881
S':'
asbag63
(g84
g65
NtRp2882
(dp2883
g68
(dp2884
sg77
g2869
sg70
(lp2885
g63
(g64
g65
NtRp2886
(dp2887
g68
(dp2888
g76
I3
ssg77
g2882
sg70
(lp2889
g1467
asbasbasbag63
(g79
g65
NtRp2890
(dp2891
g68
(dp2892
sg77
g2781
sg70
(lp2893
g63
(g84
g65
NtRp2894
(dp2895
g68
(dp2896
g88
g89
ssg77
g2890
sg70
(lp2897
S'HTTP_COOKIE'
p2898
asbag63
(g84
g65
NtRp2899
(dp2900
g68
(dp2901
g95
g96
ssg77
g2890
sg70
(lp2902
S':'
asbag63
(g84
g65
NtRp2903
(dp2904
g68
(dp2905
sg77
g2890
sg70
(lp2906
g63
(g64
g65
NtRp2907
(dp2908
g68
(dp2909
g76
I3
ssg77
g2903
sg70
(lp2910
g1489
asbasbasbag63
(g79
g65
NtRp2911
(dp2912
g68
(dp2913
sg77
g2781
sg70
(lp2914
g63
(g84
g65
NtRp2915
(dp2916
g68
(dp2917
g88
g89
ssg77
g2911
sg70
(lp2918
S'HTTP_HOST'
p2919
asbag63
(g84
g65
NtRp2920
(dp2921
g68
(dp2922
g95
g96
ssg77
g2911
sg70
(lp2923
S':'
asbag63
(g84
g65
NtRp2924
(dp2925
g68
(dp2926
sg77
g2911
sg70
(lp2927
g63
(g64
g65
NtRp2928
(dp2929
g68
(dp2930
g76
I3
ssg77
g2924
sg70
(lp2931
g1511
asbasbasbag63
(g79
g65
NtRp2932
(dp2933
g68
(dp2934
sg77
g2781
sg70
(lp2935
g63
(g84
g65
NtRp2936
(dp2937
g68
(dp2938
g88
g89
ssg77
g2932
sg70
(lp2939
S'HTTP_USER_AGENT'
p2940
asbag63
(g84
g65
NtRp2941
(dp2942
g68
(dp2943
g95
g96
ssg77
g2932
sg70
(lp2944
S':'
asbag63
(g84
g65
NtRp2945
(dp2946
g68
(dp2947
sg77
g2932
sg70
(lp2948
g63
(g64
g65
NtRp2949
(dp2950
g68
(dp2951
g76
I3
ssg77
g2945
sg70
(lp2952
g1533
asbasbasbag63
(g79
g65
NtRp2953
(dp2954
g68
(dp2955
sg77
g2781
sg70
(lp2956
g63
(g84
g65
NtRp2957
(dp2958
g68
(dp2959
g88
g89
ssg77
g2953
sg70
(lp2960
S'PATH_INFO'
p2961
asbag63
(g84
g65
NtRp2962
(dp2963
g68
(dp2964
g95
g96
ssg77
g2953
sg70
(lp2965
S':'
asbag63
(g84
g65
NtRp2966
(dp2967
g68
(dp2968
sg77
g2953
sg70
(lp2969
g63
(g64
g65
NtRp2970
(dp2971
g68
(dp2972
g76
I3
ssg77
g2966
sg70
(lp2973
g1597
asbasbasbag63
(g79
g65
NtRp2974
(dp2975
g68
(dp2976
sg77
g2781
sg70
(lp2977
g63
(g84
g65
NtRp2978
(dp2979
g68
(dp2980
g88
g89
ssg77
g2974
sg70
(lp2981
S'QUERY_STRING'
p2982
asbag63
(g84
g65
NtRp2983
(dp2984
g68
(dp2985
g95
g96
ssg77
g2974
sg70
(lp2986
S':'
asbag63
(g84
g65
NtRp2987
(dp2988
g68
(dp2989
sg77
g2974
sg70
(lp2990
g63
(g64
g65
NtRp2991
(dp2992
g68
(dp2993
g76
I3
ssg77
g2987
sg70
(lp2994
S''
asbasbasbag63
(g79
g65
NtRp2995
(dp2996
g68
(dp2997
sg77
g2781
sg70
(lp2998
g63
(g84
g65
NtRp2999
(dp3000
g68
(dp3001
g88
g89
ssg77
g2995
sg70
(lp3002
S'REMOTE_ADDR'
p3003
asbag63
(g84
g65
NtRp3004
(dp3005
g68
(dp3006
g95
g96
ssg77
g2995
sg70
(lp3007
S':'
asbag63
(g84
g65
NtRp3008
(dp3009
g68
(dp3010
sg77
g2995
sg70
(lp3011
g63
(g64
g65
NtRp3012
(dp3013
g68
(dp3014
g76
I3
ssg77
g3008
sg70
(lp3015
g196
asbasbasbag63
(g79
g65
NtRp3016
(dp3017
g68
(dp3018
sg77
g2781
sg70
(lp3019
g63
(g84
g65
NtRp3020
(dp3021
g68
(dp3022
g88
g89
ssg77
g3016
sg70
(lp3023
S'REMOTE_PORT'
p3024
asbag63
(g84
g65
NtRp3025
(dp3026
g68
(dp3027
g95
g96
ssg77
g3016
sg70
(lp3028
S':'
asbag63
(g84
g65
NtRp3029
(dp3030
g68
(dp3031
sg77
g3016
sg70
(lp3032
g63
(g64
g65
NtRp3033
(dp3034
g68
(dp3035
g76
I3
ssg77
g3029
sg70
(lp3036
g1661
asbasbasbag63
(g79
g65
NtRp3037
(dp3038
g68
(dp3039
sg77
g2781
sg70
(lp3040
g63
(g84
g65
NtRp3041
(dp3042
g68
(dp3043
g88
g89
ssg77
g3037
sg70
(lp3044
S'REQUEST_METHOD'
p3045
asbag63
(g84
g65
NtRp3046
(dp3047
g68
(dp3048
g95
g96
ssg77
g3037
sg70
(lp3049
S':'
asbag63
(g84
g65
NtRp3050
(dp3051
g68
(dp3052
sg77
g3037
sg70
(lp3053
g63
(g64
g65
NtRp3054
(dp3055
g68
(dp3056
g76
I3
ssg77
g3050
sg70
(lp3057
g1683
asbasbasbag63
(g79
g65
NtRp3058
(dp3059
g68
(dp3060
sg77
g2781
sg70
(lp3061
g63
(g84
g65
NtRp3062
(dp3063
g68
(dp3064
g88
g89
ssg77
g3058
sg70
(lp3065
S'SCRIPT_NAME'
p3066
asbag63
(g84
g65
NtRp3067
(dp3068
g68
(dp3069
g95
g96
ssg77
g3058
sg70
(lp3070
S':'
asbag63
(g84
g65
NtRp3071
(dp3072
g68
(dp3073
sg77
g3058
sg70
(lp3074
g63
(g64
g65
NtRp3075
(dp3076
g68
(dp3077
g76
I3
ssg77
g3071
sg70
(lp3078
S''
asbasbasbag63
(g79
g65
NtRp3079
(dp3080
g68
(dp3081
sg77
g2781
sg70
(lp3082
g63
(g84
g65
NtRp3083
(dp3084
g68
(dp3085
g88
g89
ssg77
g3079
sg70
(lp3086
S'SERVER_NAME'
p3087
asbag63
(g84
g65
NtRp3088
(dp3089
g68
(dp3090
g95
g96
ssg77
g3079
sg70
(lp3091
S':'
asbag63
(g84
g65
NtRp3092
(dp3093
g68
(dp3094
sg77
g3079
sg70
(lp3095
g63
(g64
g65
NtRp3096
(dp3097
g68
(dp3098
g76
I3
ssg77
g3092
sg70
(lp3099
g1726
asbasbasbag63
(g79
g65
NtRp3100
(dp3101
g68
(dp3102
sg77
g2781
sg70
(lp3103
g63
(g84
g65
NtRp3104
(dp3105
g68
(dp3106
g88
g89
ssg77
g3100
sg70
(lp3107
S'SERVER_PORT'
p3108
asbag63
(g84
g65
NtRp3109
(dp3110
g68
(dp3111
g95
g96
ssg77
g3100
sg70
(lp3112
S':'
asbag63
(g84
g65
NtRp3113
(dp3114
g68
(dp3115
sg77
g3100
sg70
(lp3116
g63
(g64
g65
NtRp3117
(dp3118
g68
(dp3119
g76
I3
ssg77
g3113
sg70
(lp3120
g1748
asbasbasbag63
(g79
g65
NtRp3121
(dp3122
g68
(dp3123
sg77
g2781
sg70
(lp3124
g63
(g84
g65
NtRp3125
(dp3126
g68
(dp3127
g88
g89
ssg77
g3121
sg70
(lp3128
S'SERVER_PROTOCOL'
p3129
asbag63
(g84
g65
NtRp3130
(dp3131
g68
(dp3132
g95
g96
ssg77
g3121
sg70
(lp3133
S':'
asbag63
(g84
g65
NtRp3134
(dp3135
g68
(dp3136
sg77
g3121
sg70
(lp3137
g63
(g64
g65
NtRp3138
(dp3139
g68
(dp3140
g76
I3
ssg77
g3134
sg70
(lp3141
g1770
asbasbasbag63
(g79
g65
NtRp3142
(dp3143
g68
(dp3144
sg77
g2781
sg70
(lp3145
g63
(g84
g65
NtRp3146
(dp3147
g68
(dp3148
g88
g89
ssg77
g3142
sg70
(lp3149
S'SERVER_SOFTWARE'
p3150
asbag63
(g84
g65
NtRp3151
(dp3152
g68
(dp3153
g95
g96
ssg77
g3142
sg70
(lp3154
S':'
asbag63
(g84
g65
NtRp3155
(dp3156
g68
(dp3157
sg77
g3142
sg70
(lp3158
g63
(g64
g65
NtRp3159
(dp3160
g68
(dp3161
g76
I3
ssg77
g3155
sg70
(lp3162
g1792
asbasbasbag63
(g79
g65
NtRp3163
(dp3164
g68
(dp3165
sg77
g2781
sg70
(lp3166
g63
(g84
g65
NtRp3167
(dp3168
g68
(dp3169
g88
g89
ssg77
g3163
sg70
(lp3170
S'wsgi.errors'
p3171
asbag63
(g84
g65
NtRp3172
(dp3173
g68
(dp3174
g95
g96
ssg77
g3163
sg70
(lp3175
S':'
asbag63
(g84
g65
NtRp3176
(dp3177
g68
(dp3178
sg77
g3163
sg70
(lp3179
g63
(g64
g65
NtRp3180
(dp3181
g68
(dp3182
g76
I3
ssg77
g3176
sg70
(lp3183
S"<open file '<stderr>', mode 'w' at 0x10403c270>"
p3184
asbasbasbag63
(g79
g65
NtRp3185
(dp3186
g68
(dp3187
sg77
g2781
sg70
(lp3188
g63
(g84
g65
NtRp3189
(dp3190
g68
(dp3191
g88
g89
ssg77
g3185
sg70
(lp3192
S'wsgi.file_wrapper'
p3193
asbag63
(g84
g65
NtRp3194
(dp3195
g68
(dp3196
g95
g96
ssg77
g3185
sg70
(lp3197
S':'
asbag63
(g84
g65
NtRp3198
(dp3199
g68
(dp3200
sg77
g3185
sg70
(lp3201
g63
(g64
g65
NtRp3202
(dp3203
g68
(dp3204
g76
I3
ssg77
g3198
sg70
(lp3205
S'<class wsgiref.util.FileWrapper at 0x1049f1598>'
p3206
asbasbasbag63
(g79
g65
NtRp3207
(dp3208
g68
(dp3209
sg77
g2781
sg70
(lp3210
g63
(g84
g65
NtRp3211
(dp3212
g68
(dp3213
g88
g89
ssg77
g3207
sg70
(lp3214
S'wsgi.input'
p3215
asbag63
(g84
g65
NtRp3216
(dp3217
g68
(dp3218
g95
g96
ssg77
g3207
sg70
(lp3219
S':'
asbag63
(g84
g65
NtRp3220
(dp3221
g68
(dp3222
sg77
g3207
sg70
(lp3223
g63
(g64
g65
NtRp3224
(dp3225
g68
(dp3226
g76
I3
ssg77
g3220
sg70
(lp3227
S'<cStringIO.StringO object at 0x109dbc2d0>'
p3228
asbasbasbag63
(g79
g65
NtRp3229
(dp3230
g68
(dp3231
sg77
g2781
sg70
(lp3232
g63
(g84
g65
NtRp3233
(dp3234
g68
(dp3235
g88
g89
ssg77
g3229
sg70
(lp3236
S'wsgi.multiprocess'
p3237
asbag63
(g84
g65
NtRp3238
(dp3239
g68
(dp3240
g95
g96
ssg77
g3229
sg70
(lp3241
S':'
asbag63
(g84
g65
NtRp3242
(dp3243
g68
(dp3244
sg77
g3229
sg70
(lp3245
g63
(g64
g65
NtRp3246
(dp3247
g68
(dp3248
g76
I3
ssg77
g3242
sg70
(lp3249
g106
asbasbasbag63
(g79
g65
NtRp3250
(dp3251
g68
(dp3252
sg77
g2781
sg70
(lp3253
g63
(g84
g65
NtRp3254
(dp3255
g68
(dp3256
g88
g89
ssg77
g3250
sg70
(lp3257
S'wsgi.multithread'
p3258
asbag63
(g84
g65
NtRp3259
(dp3260
g68
(dp3261
g95
g96
ssg77
g3250
sg70
(lp3262
S':'
asbag63
(g84
g65
NtRp3263
(dp3264
g68
(dp3265
sg77
g3250
sg70
(lp3266
g63
(g64
g65
NtRp3267
(dp3268
g68
(dp3269
g76
I3
ssg77
g3263
sg70
(lp3270
g2032
asbasbasbag63
(g79
g65
NtRp3271
(dp3272
g68
(dp3273
sg77
g2781
sg70
(lp3274
g63
(g84
g65
NtRp3275
(dp3276
g68
(dp3277
g88
g89
ssg77
g3271
sg70
(lp3278
S'wsgi.run_once'
p3279
asbag63
(g84
g65
NtRp3280
(dp3281
g68
(dp3282
g95
g96
ssg77
g3271
sg70
(lp3283
S':'
asbag63
(g84
g65
NtRp3284
(dp3285
g68
(dp3286
sg77
g3271
sg70
(lp3287
g63
(g64
g65
NtRp3288
(dp3289
g68
(dp3290
g76
I3
ssg77
g3284
sg70
(lp3291
g106
asbasbasbag63
(g79
g65
NtRp3292
(dp3293
g68
(dp3294
sg77
g2781
sg70
(lp3295
g63
(g84
g65
NtRp3296
(dp3297
g68
(dp3298
g88
g89
ssg77
g3292
sg70
(lp3299
S'wsgi.url_scheme'
p3300
asbag63
(g84
g65
NtRp3301
(dp3302
g68
(dp3303
g95
g96
ssg77
g3292
sg70
(lp3304
S':'
asbag63
(g84
g65
NtRp3305
(dp3306
g68
(dp3307
sg77
g3292
sg70
(lp3308
g63
(g64
g65
NtRp3309
(dp3310
g68
(dp3311
g76
I3
ssg77
g3305
sg70
(lp3312
g2075
asbasbasbag63
(g79
g65
NtRp3313
(dp3314
g68
(dp3315
sg77
g2781
sg70
(lp3316
g63
(g84
g65
NtRp3317
(dp3318
g68
(dp3319
g88
g89
ssg77
g3313
sg70
(lp3320
S'wsgi.version'
p3321
asbag63
(g84
g65
NtRp3322
(dp3323
g68
(dp3324
g95
g96
ssg77
g3313
sg70
(lp3325
S':'
asbag63
(g84
g65
NtRp3326
(dp3327
g68
(dp3328
sg77
g3313
sg70
(lp3329
g63
(g64
g65
NtRp3330
(dp3331
g68
(dp3332
g76
I3
ssg77
g3326
sg70
(lp3333
S'1'
asbasbasbasbasbasbasbasbasbasbasbasbasbsS'frames'
p3334
(lp3335
(dp3336
S'file'
p3337
S'/Users/bmiller/src/eds/gluon/restricted.py'
p3338
sS'dump'
p3339
(dp3340
S'environment'
p3341
S"{'A': <class 'gluon.html.A'>, 'Auth': <class 'gluon.tools.Auth'>, 'B': <class 'gluon.html.B'>, 'BEAUTIFY': <class 'gluon.html.BEAUTIFY'>, 'BODY': <class 'gluon.html.BODY'>, 'BR': <class 'gluon.html.BR'>, 'BUTTON': <class 'gluon.html.BUTTON'>, 'CAT': <class 'gluon.html.CAT'>, 'CENTER': <class 'gluon.html.CENTER'>, 'CLEANUP': <class 'gluon.validators.CLEANUP'>, ...}"
p3342
sS'ccode'
p3343
S'<code object <module> at 0x10a172430, file "/Use...s/applications/eds/controllers/build.py", line 1>'
p3344
ssS'lnum'
p3345
I204
sS'lines'
p3346
(dp3347
I199
S'    try:'
p3348
sI200
S'        if type(code) == types.CodeType:'
p3349
sI201
S'            ccode = code'
p3350
sI202
S'        else:'
p3351
sI203
S'            ccode = compile2(code,layer)'
p3352
sI204
S'        exec ccode in environment'
p3353
sI205
S'    except HTTP:'
p3354
sI206
S'        raise'
p3355
sI207
S'    except RestrictedError:'
p3356
sI208
S'        # do not encapsulate (obfuscate) the original RestrictedError'
p3357
ssS'call'
p3358
S'(code="from sphinx.websupport import WebSupport\\nimport ...ess\'\\n\\n\\nresponse._vars=response._caller(builddoc)\\n", environment={\'A\': <class \'gluon.html.A\'>, \'Auth\': <class \'gluon.tools.Auth\'>, \'B\': <class \'gluon.html.B\'>, \'BEAUTIFY\': <class \'gluon.html.BEAUTIFY\'>, \'BODY\': <class \'gluon.html.BODY\'>, \'BR\': <class \'gluon.html.BR\'>, \'BUTTON\': <class \'gluon.html.BUTTON\'>, \'CAT\': <class \'gluon.html.CAT\'>, \'CENTER\': <class \'gluon.html.CENTER\'>, \'CLEANUP\': <class \'gluon.validators.CLEANUP\'>, ...}, layer=\'/Users/bmiller/src/eds/applications/eds/controllers/build.py\')'
p3359
sS'func'
p3360
S'restricted'
p3361
sa(dp3362
g3337
S'/Users/bmiller/src/eds/applications/eds/controllers/build.py'
p3363
sg3339
(dp3364
sg3345
I11
sg3346
(dp3365
I1
S'from sphinx.websupport import WebSupport'
p3366
sI2
S'import json'
p3367
sI3
S''
sI4
S''
sI5
S'def builddoc():'
p3368
sI6
S"    support = WebSupport(srcdir='/Users/bmiller/src/eds/applications/eds/source',builddir='/Users/bmiller/src/eds/applications/eds/static',staticdir='/eds/static',docroot='/eds/view')"
p3369
sI7
S'    support.build()'
p3370
sI8
S"    return 'Success'"
p3371
sI9
S''
ssg3358
S'()'
p3372
sg3360
S'<module>'
p3373
sa(dp3374
g3337
S'/Users/bmiller/src/eds/gluon/globals.py'
p3375
sg3339
(dp3376
S'self'
p3377
S'undefined'
p3378
sS'f'
S'<function builddoc>'
p3379
ssg3345
I172
sg3346
(dp3380
I167
S'        self.meta = Storage()      # used by web2py_ajax.html'
p3381
sI168
S'        self.menu = []             # used by the default view layout'
p3382
sI169
S'        self.files = []            # used by web2py_ajax.html'
p3383
sI170
S'        self.generic_patterns = [] # patterns to allow generic views'
p3384
sI171
S'        self._vars = None'
p3385
sI172
S'        self._caller = lambda f: f()'
p3386
sI173
S'        self._view_environment = None'
p3387
sI174
S'        self._custom_commit = None'
p3388
sI175
S'        self._custom_rollback = None'
p3389
sI176
S''
ssg3358
S'(f=<function builddoc>)'
p3390
sg3360
S'<lambda>'
p3391
sa(dp3392
g3337
S'/Users/bmiller/src/eds/applications/eds/controllers/build.py'
p3393
sg3339
(dp3394
S'support'
p3395
S'<sphinx.websupport.WebSupport object>'
p3396
sS'support.build'
p3397
S'<bound method WebSupport.build of <sphinx.websupport.WebSupport object>>'
p3398
ssg3345
I7
sg3346
(dp3399
I1
S'from sphinx.websupport import WebSupport'
p3400
sI2
S'import json'
p3401
sI3
S''
sI4
S''
sI5
S'def builddoc():'
p3402
sI6
S"    support = WebSupport(srcdir='/Users/bmiller/src/eds/applications/eds/source',builddir='/Users/bmiller/src/eds/applications/eds/static',staticdir='/eds/static',docroot='/eds/view')"
p3403
sI7
S'    support.build()'
p3404
sI8
S"    return 'Success'"
p3405
sI9
S''
ssg3358
S'()'
p3406
sg3360
S'builddoc'
p3407
sa(dp3408
g3337
S'/Library/Python/2.7/site-packages/Sphinx-1.1.2-py2.7.egg/sphinx/websupport/__init__.py'
p3409
sg3339
(dp3410
S'status'
p3411
g3378
sS'self.status'
p3412
S"<open file '<stdout>', mode 'w'>"
p3413
sS'self'
p3414
S'<sphinx.websupport.WebSupport object>'
p3415
sS'warning'
p3416
g3378
sS'self.warning'
p3417
S"<open file '<stderr>', mode 'w'>"
p3418
ssg3345
I121
sg3346
(dp3419
I116
S'        It will also save node data to the database.'
p3420
sI117
S'        """'
p3421
sI118
S'        if not self.srcdir:'
p3422
sI119
S"            raise RuntimeError('No srcdir associated with WebSupport object')"
p3423
sI120
S'        app = Sphinx(self.srcdir, self.srcdir, self.outdir, self.doctreedir,'
p3424
sI121
S"                     'websupport', status=self.status, warning=self.warning)"
p3425
sI122
S'        app.builder.set_webinfo(self.staticdir, self.staticroot,'
p3426
sI123
S'                                self.search, self.storage)'
p3427
sI124
S''
sI125
S'        self.storage.pre_build()'
p3428
ssg3358
S'(self=<sphinx.websupport.WebSupport object>)'
p3429
sg3360
S'build'
p3430
sa(dp3431
g3337
S'/Library/Python/2.7/site-packages/Sphinx-1.1.2-py2.7.egg/sphinx/application.py'
p3432
sg3339
(dp3433
S'self'
p3434
S'<sphinx.application.Sphinx object>'
p3435
sS'buildername'
p3436
S"'websupport'"
p3437
sS'self._init_builder'
p3438
S'<bound method Sphinx._init_builder of <sphinx.application.Sphinx object>>'
p3439
ssg3345
I134
sg3346
(dp3440
I129
S'        # set up translation infrastructure'
p3441
sI130
S'        self._init_i18n()'
p3442
sI131
S'        # set up the build environment'
p3443
sI132
S'        self._init_env(freshenv)'
p3444
sI133
S'        # set up the builder'
p3445
sI134
S'        self._init_builder(buildername)'
p3446
sI135
S''
sI136
S'    def _init_i18n(self):'
p3447
sI137
S'        """Load translated strings from the configured localedirs if enabled in'
p3448
sI138
S'        the configuration.'
p3449
ssg3358
S"(self=<sphinx.application.Sphinx object>, srcdir='/Users/bmiller/src/eds/applications/eds/source', confdir='/Users/bmiller/src/eds/applications/eds/source', outdir='/Users/bmiller/src/eds/applications/eds/static/data', doctreedir='/eds/static', buildername='websupport', confoverrides=None, status=<open file '<stdout>', mode 'w'>, warning=<open file '<stderr>', mode 'w'>, freshenv=False, warningiserror=False, tags=None)"
p3450
sg3360
g22
sa(dp3451
g3337
S'/Library/Python/2.7/site-packages/Sphinx-1.1.2-py2.7.egg/sphinx/application.py'
p3452
sg3339
(dp3453
S'self'
p3454
S'<sphinx.application.Sphinx object>'
p3455
sS'self.builder'
p3456
S'None'
p3457
sS'builderclass'
p3458
S"<class 'sphinx.builders.websupport.WebSupportBuilder'>"
p3459
ssg3345
I194
sg3346
(dp3460
I192
S'            builderclass = getattr('
p3461
sI193
S"                __import__('sphinx.builders.' + mod, None, None, [cls]), cls)"
p3462
sI194
S'        self.builder = builderclass(self)'
p3463
sI195
S"        self.emit('builder-inited')"
p3464
sI196
S''
sI197
S'    def build(self, force_all=False, filenames=None):'
p3465
sI198
S'        try:'
p3466
sI189
S'        if isinstance(builderclass, tuple):'
p3467
sI190
S'            # builtin builder'
p3468
sI191
S'            mod, cls = builderclass'
p3469
ssg3358
S"(self=<sphinx.application.Sphinx object>, buildername='websupport')"
p3470
sg3360
S'_init_builder'
p3471
sa(dp3472
g3337
S'/Library/Python/2.7/site-packages/Sphinx-1.1.2-py2.7.egg/sphinx/builders/__init__.py'
p3473
sg3339
(dp3474
S'self.doctreedir'
p3475
S"'/eds/static'"
p3476
sS'self'
p3477
S'<sphinx.builders.websupport.WebSupportBuilder object>'
p3478
sS'global os'
p3479
S"<module 'os' from '/System/Library/Frameworks/Python.framework/Versions/2.7/lib/python2.7/os.pyc'>"
p3480
sS'os.makedirs'
p3481
S'<function makedirs>'
p3482
ssg3345
I45
sg3346
(dp3483
I40
S'        self.srcdir = app.srcdir'
p3484
sI41
S'        self.confdir = app.confdir'
p3485
sI42
S'        self.outdir = app.outdir'
p3486
sI43
S'        self.doctreedir = app.doctreedir'
p3487
sI44
S'        if not path.isdir(self.doctreedir):'
p3488
sI45
S'            os.makedirs(self.doctreedir)'
p3489
sI46
S''
sI47
S'        self.app = app'
p3490
sI48
S'        self.warn = app.warn'
p3491
sI49
S'        self.info = app.info'
p3492
ssg3358
S'(self=<sphinx.builders.websupport.WebSupportBuilder object>, app=<sphinx.application.Sphinx object>)'
p3493
sg3360
g22
sa(dp3494
g3337
S'/System/Library/Frameworks/Python.framework/Versions/2.7/lib/python2.7/os.py'
p3495
sg3339
(dp3496
S'global makedirs'
p3497
S'<function makedirs>'
p3498
sS'head'
p3499
S"'/eds'"
p3500
sS'mode'
p3501
S'511'
p3502
ssg3345
I150
sg3346
(dp3503
I145
S'    head, tail = path.split(name)'
p3504
sI146
S'    if not tail:'
p3505
sI147
S'        head, tail = path.split(head)'
p3506
sI148
S'    if head and tail and not path.exists(head):'
p3507
sI149
S'        try:'
p3508
sI150
S'            makedirs(head, mode)'
p3509
sI151
S'        except OSError, e:'
p3510
sI152
S'            # be happy if someone already created the path'
p3511
sI153
S'            if e.errno != errno.EEXIST:'
p3512
sI154
S'                raise'
p3513
ssg3358
S"(name='/eds/static', mode=511)"
p3514
sg3360
S'makedirs'
p3515
sa(dp3516
g3337
S'/System/Library/Frameworks/Python.framework/Versions/2.7/lib/python2.7/os.py'
p3517
sg3339
(dp3518
S'global mkdir'
p3519
S'<built-in function mkdir>'
p3520
sS'name'
p3521
S"'/eds'"
p3522
sS'mode'
p3523
S'511'
p3524
ssg3345
I157
sg3346
(dp3525
I160
S'    """removedirs(path)'
p3526
sI161
S''
sI152
S'            # be happy if someone already created the path'
p3527
sI153
S'            if e.errno != errno.EEXIST:'
p3528
sI154
S'                raise'
p3529
sI155
S'        if tail == curdir:           # xxx/newdir/. exists if xxx/newdir exists'
p3530
sI156
S'            return'
p3531
sI157
S'    mkdir(name, mode)'
p3532
sI158
S''
sI159
S'def removedirs(name):'
p3533
ssg3358
S"(name='/eds', mode=511)"
p3534
sg3360
g3515
sasS'pyver'
p3535
S'Python 2.7.1: /usr/bin/python'
p3536
sS'session'
p3537
g63
(g64
g65
NtRp3538
(dp3539
g68
(dp3540
sg70
(lp3541
g63
(g72
g65
NtRp3542
(dp3543
g68
(dp3544
g76
I5
ssg77
Nsg70
(lp3545
sbasbsS'etype'
p3546
S"<type 'exceptions.OSError'>"
p3547
sS'date'
p3548
S'Mon Jan 23 13:20:21 2012'
p3549
sS'response'
p3550
g63
(g64
g65
NtRp3551
(dp3552
g68
(dp3553
sg70
(lp3554
g63
(g72
g65
NtRp3555
(dp3556
g68
(dp3557
g76
I5
ssg77
Nsg70
(lp3558
g63
(g79
g65
NtRp3559
(dp3560
g68
(dp3561
sg77
g3555
sg70
(lp3562
g63
(g84
g65
NtRp3563
(dp3564
g68
(dp3565
g88
g89
ssg77
g3559
sg70
(lp3566
g161
asbag63
(g84
g65
NtRp3567
(dp3568
g68
(dp3569
g95
g96
ssg77
g3559
sg70
(lp3570
S':'
asbag63
(g84
g65
NtRp3571
(dp3572
g68
(dp3573
sg77
g3559
sg70
(lp3574
g63
(g64
g65
NtRp3575
(dp3576
g68
(dp3577
g76
I5
ssg77
g3571
sg70
(lp3578
S'<cStringIO.StringO object at 0x1047eb538>'
p3579
asbasbasbag63
(g79
g65
NtRp3580
(dp3581
g68
(dp3582
sg77
g3555
sg70
(lp3583
g63
(g84
g65
NtRp3584
(dp3585
g68
(dp3586
g88
g89
ssg77
g3580
sg70
(lp3587
g227
asbag63
(g84
g65
NtRp3588
(dp3589
g68
(dp3590
g95
g96
ssg77
g3580
sg70
(lp3591
S':'
asbag63
(g84
g65
NtRp3592
(dp3593
g68
(dp3594
sg77
g3580
sg70
(lp3595
g63
(g64
g65
NtRp3596
(dp3597
g68
(dp3598
g76
I5
ssg77
g3592
sg70
(lp3599
g63
(g72
g65
NtRp3600
(dp3601
g68
(dp3602
g76
I4
ssg77
Nsg70
(lp3603
g63
(g79
g65
NtRp3604
(dp3605
g68
(dp3606
sg77
g3600
sg70
(lp3607
g63
(g84
g65
NtRp3608
(dp3609
g68
(dp3610
g88
g89
ssg77
g3604
sg70
(lp3611
S'session_id_eds'
p3612
asbag63
(g84
g65
NtRp3613
(dp3614
g68
(dp3615
g95
g96
ssg77
g3604
sg70
(lp3616
S':'
asbag63
(g84
g65
NtRp3617
(dp3618
g68
(dp3619
sg77
g3604
sg70
(lp3620
g63
(g64
g65
NtRp3621
(dp3622
g68
(dp3623
g76
I4
ssg77
g3617
sg70
(lp3624
g63
(g72
g65
NtRp3625
(dp3626
g68
(dp3627
g76
I3
ssg77
Nsg70
(lp3628
g63
(g79
g65
NtRp3629
(dp3630
g68
(dp3631
sg77
g3625
sg70
(lp3632
g63
(g84
g65
NtRp3633
(dp3634
g68
(dp3635
g88
g89
ssg77
g3629
sg70
(lp3636
g277
asbag63
(g84
g65
NtRp3637
(dp3638
g68
(dp3639
g95
g96
ssg77
g3629
sg70
(lp3640
S':'
asbag63
(g84
g65
NtRp3641
(dp3642
g68
(dp3643
sg77
g3629
sg70
(lp3644
g63
(g64
g65
NtRp3645
(dp3646
g68
(dp3647
g76
I3
ssg77
g3641
sg70
(lp3648
S''
asbasbasbag63
(g79
g65
NtRp3649
(dp3650
g68
(dp3651
sg77
g3625
sg70
(lp3652
g63
(g84
g65
NtRp3653
(dp3654
g68
(dp3655
g88
g89
ssg77
g3649
sg70
(lp3656
g298
asbag63
(g84
g65
NtRp3657
(dp3658
g68
(dp3659
g95
g96
ssg77
g3649
sg70
(lp3660
S':'
asbag63
(g84
g65
NtRp3661
(dp3662
g68
(dp3663
sg77
g3649
sg70
(lp3664
g63
(g64
g65
NtRp3665
(dp3666
g68
(dp3667
g76
I3
ssg77
g3661
sg70
(lp3668
S''
asbasbasbag63
(g79
g65
NtRp3669
(dp3670
g68
(dp3671
sg77
g3625
sg70
(lp3672
g63
(g84
g65
NtRp3673
(dp3674
g68
(dp3675
g88
g89
ssg77
g3669
sg70
(lp3676
g319
asbag63
(g84
g65
NtRp3677
(dp3678
g68
(dp3679
g95
g96
ssg77
g3669
sg70
(lp3680
S':'
asbag63
(g84
g65
NtRp3681
(dp3682
g68
(dp3683
sg77
g3669
sg70
(lp3684
g63
(g64
g65
NtRp3685
(dp3686
g68
(dp3687
g76
I3
ssg77
g3681
sg70
(lp3688
S''
asbasbasbag63
(g79
g65
NtRp3689
(dp3690
g68
(dp3691
sg77
g3625
sg70
(lp3692
g63
(g84
g65
NtRp3693
(dp3694
g68
(dp3695
g88
g89
ssg77
g3689
sg70
(lp3696
g340
asbag63
(g84
g65
NtRp3697
(dp3698
g68
(dp3699
g95
g96
ssg77
g3689
sg70
(lp3700
S':'
asbag63
(g84
g65
NtRp3701
(dp3702
g68
(dp3703
sg77
g3689
sg70
(lp3704
g63
(g64
g65
NtRp3705
(dp3706
g68
(dp3707
g76
I3
ssg77
g3701
sg70
(lp3708
S''
asbasbasbag63
(g79
g65
NtRp3709
(dp3710
g68
(dp3711
sg77
g3625
sg70
(lp3712
g63
(g84
g65
NtRp3713
(dp3714
g68
(dp3715
g88
g89
ssg77
g3709
sg70
(lp3716
g361
asbag63
(g84
g65
NtRp3717
(dp3718
g68
(dp3719
g95
g96
ssg77
g3709
sg70
(lp3720
S':'
asbag63
(g84
g65
NtRp3721
(dp3722
g68
(dp3723
sg77
g3709
sg70
(lp3724
g63
(g64
g65
NtRp3725
(dp3726
g68
(dp3727
g76
I3
ssg77
g3721
sg70
(lp3728
S''
asbasbasbag63
(g79
g65
NtRp3729
(dp3730
g68
(dp3731
sg77
g3625
sg70
(lp3732
g63
(g84
g65
NtRp3733
(dp3734
g68
(dp3735
g88
g89
ssg77
g3729
sg70
(lp3736
g382
asbag63
(g84
g65
NtRp3737
(dp3738
g68
(dp3739
g95
g96
ssg77
g3729
sg70
(lp3740
S':'
asbag63
(g84
g65
NtRp3741
(dp3742
g68
(dp3743
sg77
g3729
sg70
(lp3744
g63
(g64
g65
NtRp3745
(dp3746
g68
(dp3747
g76
I3
ssg77
g3741
sg70
(lp3748
S'/'
asbasbasbag63
(g79
g65
NtRp3749
(dp3750
g68
(dp3751
sg77
g3625
sg70
(lp3752
g63
(g84
g65
NtRp3753
(dp3754
g68
(dp3755
g88
g89
ssg77
g3749
sg70
(lp3756
g403
asbag63
(g84
g65
NtRp3757
(dp3758
g68
(dp3759
g95
g96
ssg77
g3749
sg70
(lp3760
S':'
asbag63
(g84
g65
NtRp3761
(dp3762
g68
(dp3763
sg77
g3749
sg70
(lp3764
g63
(g64
g65
NtRp3765
(dp3766
g68
(dp3767
g76
I3
ssg77
g3761
sg70
(lp3768
S''
asbasbasbag63
(g79
g65
NtRp3769
(dp3770
g68
(dp3771
sg77
g3625
sg70
(lp3772
g63
(g84
g65
NtRp3773
(dp3774
g68
(dp3775
g88
g89
ssg77
g3769
sg70
(lp3776
g424
asbag63
(g84
g65
NtRp3777
(dp3778
g68
(dp3779
g95
g96
ssg77
g3769
sg70
(lp3780
S':'
asbag63
(g84
g65
NtRp3781
(dp3782
g68
(dp3783
sg77
g3769
sg70
(lp3784
g63
(g64
g65
NtRp3785
(dp3786
g68
(dp3787
g76
I3
ssg77
g3781
sg70
(lp3788
S''
asbasbasbasbasbasbasbasbasbasbasbag63
(g79
g65
NtRp3789
(dp3790
g68
(dp3791
sg77
g3555
sg70
(lp3792
g63
(g84
g65
NtRp3793
(dp3794
g68
(dp3795
g88
g89
ssg77
g3789
sg70
(lp3796
S'files'
p3797
asbag63
(g84
g65
NtRp3798
(dp3799
g68
(dp3800
g95
g96
ssg77
g3789
sg70
(lp3801
S':'
asbag63
(g84
g65
NtRp3802
(dp3803
g68
(dp3804
sg77
g3789
sg70
(lp3805
g63
(g64
g65
NtRp3806
(dp3807
g68
(dp3808
g76
I5
ssg77
g3802
sg70
(lp3809
g63
(g72
g65
NtRp3810
(dp3811
g68
(dp3812
g76
I4
ssg77
Nsg70
(lp3813
sbasbasbasbag63
(g79
g65
NtRp3814
(dp3815
g68
(dp3816
sg77
g3555
sg70
(lp3817
g63
(g84
g65
NtRp3818
(dp3819
g68
(dp3820
g88
g89
ssg77
g3814
sg70
(lp3821
S'flash'
p3822
asbag63
(g84
g65
NtRp3823
(dp3824
g68
(dp3825
g95
g96
ssg77
g3814
sg70
(lp3826
S':'
asbag63
(g84
g65
NtRp3827
(dp3828
g68
(dp3829
sg77
g3814
sg70
(lp3830
g63
(g64
g65
NtRp3831
(dp3832
g68
(dp3833
g76
I5
ssg77
g3827
sg70
(lp3834
S''
asbasbasbag63
(g79
g65
NtRp3835
(dp3836
g68
(dp3837
sg77
g3555
sg70
(lp3838
g63
(g84
g65
NtRp3839
(dp3840
g68
(dp3841
g88
g89
ssg77
g3835
sg70
(lp3842
S'generic_patterns'
p3843
asbag63
(g84
g65
NtRp3844
(dp3845
g68
(dp3846
g95
g96
ssg77
g3835
sg70
(lp3847
S':'
asbag63
(g84
g65
NtRp3848
(dp3849
g68
(dp3850
sg77
g3835
sg70
(lp3851
g63
(g64
g65
NtRp3852
(dp3853
g68
(dp3854
g76
I5
ssg77
g3848
sg70
(lp3855
g63
(g72
g65
NtRp3856
(dp3857
g68
(dp3858
g76
I4
ssg77
Nsg70
(lp3859
g63
(g79
g65
NtRp3860
(dp3861
g68
(dp3862
sg77
g3856
sg70
(lp3863
g63
(g84
g65
NtRp3864
(dp3865
g68
(dp3866
sg77
g3860
sg70
(lp3867
g63
(g64
g65
NtRp3868
(dp3869
g68
(dp3870
g76
I4
ssg77
g3864
sg70
(lp3871
S'*'
asbasbasbasbasbasbasbag63
(g79
g65
NtRp3872
(dp3873
g68
(dp3874
sg77
g3555
sg70
(lp3875
g63
(g84
g65
NtRp3876
(dp3877
g68
(dp3878
g88
g89
ssg77
g3872
sg70
(lp3879
S'headers'
p3880
asbag63
(g84
g65
NtRp3881
(dp3882
g68
(dp3883
g95
g96
ssg77
g3872
sg70
(lp3884
S':'
asbag63
(g84
g65
NtRp3885
(dp3886
g68
(dp3887
sg77
g3872
sg70
(lp3888
g63
(g64
g65
NtRp3889
(dp3890
g68
(dp3891
g76
I5
ssg77
g3885
sg70
(lp3892
g63
(g72
g65
NtRp3893
(dp3894
g68
(dp3895
g76
I4
ssg77
Nsg70
(lp3896
g63
(g79
g65
NtRp3897
(dp3898
g68
(dp3899
sg77
g3893
sg70
(lp3900
g63
(g84
g65
NtRp3901
(dp3902
g68
(dp3903
g88
g89
ssg77
g3897
sg70
(lp3904
S'Cache-Control'
p3905
asbag63
(g84
g65
NtRp3906
(dp3907
g68
(dp3908
g95
g96
ssg77
g3897
sg70
(lp3909
S':'
asbag63
(g84
g65
NtRp3910
(dp3911
g68
(dp3912
sg77
g3897
sg70
(lp3913
g63
(g64
g65
NtRp3914
(dp3915
g68
(dp3916
g76
I4
ssg77
g3910
sg70
(lp3917
S'no-store, no-cache, must-revalidate, post-check=0, pre-check=0'
p3918
asbasbasbag63
(g79
g65
NtRp3919
(dp3920
g68
(dp3921
sg77
g3893
sg70
(lp3922
g63
(g84
g65
NtRp3923
(dp3924
g68
(dp3925
g88
g89
ssg77
g3919
sg70
(lp3926
S'Content-Type'
p3927
asbag63
(g84
g65
NtRp3928
(dp3929
g68
(dp3930
g95
g96
ssg77
g3919
sg70
(lp3931
S':'
asbag63
(g84
g65
NtRp3932
(dp3933
g68
(dp3934
sg77
g3919
sg70
(lp3935
g63
(g64
g65
NtRp3936
(dp3937
g68
(dp3938
g76
I4
ssg77
g3932
sg70
(lp3939
S'text/html; charset=utf-8'
p3940
asbasbasbag63
(g79
g65
NtRp3941
(dp3942
g68
(dp3943
sg77
g3893
sg70
(lp3944
g63
(g84
g65
NtRp3945
(dp3946
g68
(dp3947
g88
g89
ssg77
g3941
sg70
(lp3948
S'Expires'
p3949
asbag63
(g84
g65
NtRp3950
(dp3951
g68
(dp3952
g95
g96
ssg77
g3941
sg70
(lp3953
S':'
asbag63
(g84
g65
NtRp3954
(dp3955
g68
(dp3956
sg77
g3941
sg70
(lp3957
g63
(g64
g65
NtRp3958
(dp3959
g68
(dp3960
g76
I4
ssg77
g3954
sg70
(lp3961
S'Mon, 23 Jan 2012 19:20:21 GMT'
p3962
asbasbasbag63
(g79
g65
NtRp3963
(dp3964
g68
(dp3965
sg77
g3893
sg70
(lp3966
g63
(g84
g65
NtRp3967
(dp3968
g68
(dp3969
g88
g89
ssg77
g3963
sg70
(lp3970
S'Pragma'
p3971
asbag63
(g84
g65
NtRp3972
(dp3973
g68
(dp3974
g95
g96
ssg77
g3963
sg70
(lp3975
S':'
asbag63
(g84
g65
NtRp3976
(dp3977
g68
(dp3978
sg77
g3963
sg70
(lp3979
g63
(g64
g65
NtRp3980
(dp3981
g68
(dp3982
g76
I4
ssg77
g3976
sg70
(lp3983
S'no-cache'
p3984
asbasbasbag63
(g79
g65
NtRp3985
(dp3986
g68
(dp3987
sg77
g3893
sg70
(lp3988
g63
(g84
g65
NtRp3989
(dp3990
g68
(dp3991
g88
g89
ssg77
g3985
sg70
(lp3992
S'X-Powered-By'
p3993
asbag63
(g84
g65
NtRp3994
(dp3995
g68
(dp3996
g95
g96
ssg77
g3985
sg70
(lp3997
S':'
asbag63
(g84
g65
NtRp3998
(dp3999
g68
(dp4000
sg77
g3985
sg70
(lp4001
g63
(g64
g65
NtRp4002
(dp4003
g68
(dp4004
g76
I4
ssg77
g3998
sg70
(lp4005
S'web2py'
p4006
asbasbasbasbasbasbasbag63
(g79
g65
NtRp4007
(dp4008
g68
(dp4009
sg77
g3555
sg70
(lp4010
g63
(g84
g65
NtRp4011
(dp4012
g68
(dp4013
g88
g89
ssg77
g4007
sg70
(lp4014
S'menu'
p4015
asbag63
(g84
g65
NtRp4016
(dp4017
g68
(dp4018
g95
g96
ssg77
g4007
sg70
(lp4019
S':'
asbag63
(g84
g65
NtRp4020
(dp4021
g68
(dp4022
sg77
g4007
sg70
(lp4023
g63
(g64
g65
NtRp4024
(dp4025
g68
(dp4026
g76
I5
ssg77
g4020
sg70
(lp4027
g63
(g72
g65
NtRp4028
(dp4029
g68
(dp4030
g76
I4
ssg77
Nsg70
(lp4031
g63
(g79
g65
NtRp4032
(dp4033
g68
(dp4034
sg77
g4028
sg70
(lp4035
g63
(g84
g65
NtRp4036
(dp4037
g68
(dp4038
sg77
g4032
sg70
(lp4039
g63
(g64
g65
NtRp4040
(dp4041
g68
(dp4042
g76
I4
ssg77
g4036
sg70
(lp4043
g63
(g72
g65
NtRp4044
(dp4045
g68
(dp4046
g76
I3
ssg77
Nsg70
(lp4047
g63
(g79
g65
NtRp4048
(dp4049
g68
(dp4050
sg77
g4044
sg70
(lp4051
g63
(g84
g65
NtRp4052
(dp4053
g68
(dp4054
sg77
g4048
sg70
(lp4055
g63
(g64
g65
NtRp4056
(dp4057
g68
(dp4058
g76
I3
ssg77
g4052
sg70
(lp4059
cgluon.languages
lazyT_unpickle
p4060
(S't\x05\x00\x00\x00Index'
tRp4061
asbasbasbag63
(g79
g65
NtRp4062
(dp4063
g68
(dp4064
sg77
g4044
sg70
(lp4065
g63
(g84
g65
NtRp4066
(dp4067
g68
(dp4068
sg77
g4062
sg70
(lp4069
g63
(g64
g65
NtRp4070
(dp4071
g68
(dp4072
g76
I3
ssg77
g4066
sg70
(lp4073
g106
asbasbasbag63
(g79
g65
NtRp4074
(dp4075
g68
(dp4076
sg77
g4044
sg70
(lp4077
g63
(g84
g65
NtRp4078
(dp4079
g68
(dp4080
sg77
g4074
sg70
(lp4081
g63
(g64
g65
NtRp4082
(dp4083
g68
(dp4084
g76
I3
ssg77
g4078
sg70
(lp4085
S'/eds/default/index'
p4086
asbasbasbag63
(g79
g65
NtRp4087
(dp4088
g68
(dp4089
sg77
g4044
sg70
(lp4090
g63
(g84
g65
NtRp4091
(dp4092
g68
(dp4093
sg77
g4087
sg70
(lp4094
g63
(g64
g65
NtRp4095
(dp4096
g68
(dp4097
g76
I3
ssg77
g4091
sg70
(lp4098
g63
(g72
g65
NtRp4099
(dp4100
g68
(dp4101
g76
I2
ssg77
Nsg70
(lp4102
sbasbasbasbasbasbasbasbasbasbasbasbag63
(g79
g65
NtRp4103
(dp4104
g68
(dp4105
sg77
g3555
sg70
(lp4106
g63
(g84
g65
NtRp4107
(dp4108
g68
(dp4109
g88
g89
ssg77
g4103
sg70
(lp4110
S'meta'
p4111
asbag63
(g84
g65
NtRp4112
(dp4113
g68
(dp4114
g95
g96
ssg77
g4103
sg70
(lp4115
S':'
asbag63
(g84
g65
NtRp4116
(dp4117
g68
(dp4118
sg77
g4103
sg70
(lp4119
g63
(g64
g65
NtRp4120
(dp4121
g68
(dp4122
g76
I5
ssg77
g4116
sg70
(lp4123
g63
(g72
g65
NtRp4124
(dp4125
g68
(dp4126
g76
I4
ssg77
Nsg70
(lp4127
g63
(g79
g65
NtRp4128
(dp4129
g68
(dp4130
sg77
g4124
sg70
(lp4131
g63
(g84
g65
NtRp4132
(dp4133
g68
(dp4134
g88
g89
ssg77
g4128
sg70
(lp4135
S'author'
p4136
asbag63
(g84
g65
NtRp4137
(dp4138
g68
(dp4139
g95
g96
ssg77
g4128
sg70
(lp4140
S':'
asbag63
(g84
g65
NtRp4141
(dp4142
g68
(dp4143
sg77
g4128
sg70
(lp4144
g63
(g64
g65
NtRp4145
(dp4146
g68
(dp4147
g76
I4
ssg77
g4141
sg70
(lp4148
S'Brad Miller <you@example.com>'
p4149
asbasbasbag63
(g79
g65
NtRp4150
(dp4151
g68
(dp4152
sg77
g4124
sg70
(lp4153
g63
(g84
g65
NtRp4154
(dp4155
g68
(dp4156
g88
g89
ssg77
g4150
sg70
(lp4157
S'description'
p4158
asbag63
(g84
g65
NtRp4159
(dp4160
g68
(dp4161
g95
g96
ssg77
g4150
sg70
(lp4162
S':'
asbag63
(g84
g65
NtRp4163
(dp4164
g68
(dp4165
sg77
g4150
sg70
(lp4166
g63
(g64
g65
NtRp4167
(dp4168
g68
(dp4169
g76
I4
ssg77
g4163
sg70
(lp4170
S''
asbasbasbag63
(g79
g65
NtRp4171
(dp4172
g68
(dp4173
sg77
g4124
sg70
(lp4174
g63
(g84
g65
NtRp4175
(dp4176
g68
(dp4177
g88
g89
ssg77
g4171
sg70
(lp4178
S'keywords'
p4179
asbag63
(g84
g65
NtRp4180
(dp4181
g68
(dp4182
g95
g96
ssg77
g4171
sg70
(lp4183
S':'
asbag63
(g84
g65
NtRp4184
(dp4185
g68
(dp4186
sg77
g4171
sg70
(lp4187
g63
(g64
g65
NtRp4188
(dp4189
g68
(dp4190
g76
I4
ssg77
g4184
sg70
(lp4191
S''
asbasbasbasbasbasbasbag63
(g79
g65
NtRp4192
(dp4193
g68
(dp4194
sg77
g3555
sg70
(lp4195
g63
(g84
g65
NtRp4196
(dp4197
g68
(dp4198
g88
g89
ssg77
g4192
sg70
(lp4199
S'postprocessing'
p4200
asbag63
(g84
g65
NtRp4201
(dp4202
g68
(dp4203
g95
g96
ssg77
g4192
sg70
(lp4204
S':'
asbag63
(g84
g65
NtRp4205
(dp4206
g68
(dp4207
sg77
g4192
sg70
(lp4208
g63
(g64
g65
NtRp4209
(dp4210
g68
(dp4211
g76
I5
ssg77
g4205
sg70
(lp4212
g63
(g72
g65
NtRp4213
(dp4214
g68
(dp4215
g76
I4
ssg77
Nsg70
(lp4216
sbasbasbasbag63
(g79
g65
NtRp4217
(dp4218
g68
(dp4219
sg77
g3555
sg70
(lp4220
g63
(g84
g65
NtRp4221
(dp4222
g68
(dp4223
g88
g89
ssg77
g4217
sg70
(lp4224
S'session_file'
p4225
asbag63
(g84
g65
NtRp4226
(dp4227
g68
(dp4228
g95
g96
ssg77
g4217
sg70
(lp4229
S':'
asbag63
(g84
g65
NtRp4230
(dp4231
g68
(dp4232
sg77
g4217
sg70
(lp4233
g63
(g64
g65
NtRp4234
(dp4235
g68
(dp4236
g76
I5
ssg77
g4230
sg70
(lp4237
S"<open file '/Users/bmiller/src/eds/applications/eds/sessions/127.0.0.1-606c6b2f-5df6-4644-a034-00968e408966', mode 'rb+' at 0x10a4e1e40>"
p4238
asbasbasbag63
(g79
g65
NtRp4239
(dp4240
g68
(dp4241
sg77
g3555
sg70
(lp4242
g63
(g84
g65
NtRp4243
(dp4244
g68
(dp4245
g88
g89
ssg77
g4239
sg70
(lp4246
S'session_filename'
p4247
asbag63
(g84
g65
NtRp4248
(dp4249
g68
(dp4250
g95
g96
ssg77
g4239
sg70
(lp4251
S':'
asbag63
(g84
g65
NtRp4252
(dp4253
g68
(dp4254
sg77
g4239
sg70
(lp4255
g63
(g64
g65
NtRp4256
(dp4257
g68
(dp4258
g76
I5
ssg77
g4252
sg70
(lp4259
S'/Users/bmiller/src/eds/applications/eds/sessions/127.0.0.1-606c6b2f-5df6-4644-a034-00968e408966'
p4260
asbasbasbag63
(g79
g65
NtRp4261
(dp4262
g68
(dp4263
sg77
g3555
sg70
(lp4264
g63
(g84
g65
NtRp4265
(dp4266
g68
(dp4267
g88
g89
ssg77
g4261
sg70
(lp4268
S'session_id'
p4269
asbag63
(g84
g65
NtRp4270
(dp4271
g68
(dp4272
g95
g96
ssg77
g4261
sg70
(lp4273
S':'
asbag63
(g84
g65
NtRp4274
(dp4275
g68
(dp4276
sg77
g4261
sg70
(lp4277
g63
(g64
g65
NtRp4278
(dp4279
g68
(dp4280
g76
I5
ssg77
g4274
sg70
(lp4281
S'127.0.0.1-606c6b2f-5df6-4644-a034-00968e408966'
p4282
asbasbasbag63
(g79
g65
NtRp4283
(dp4284
g68
(dp4285
sg77
g3555
sg70
(lp4286
g63
(g84
g65
NtRp4287
(dp4288
g68
(dp4289
g88
g89
ssg77
g4283
sg70
(lp4290
S'session_id_name'
p4291
asbag63
(g84
g65
NtRp4292
(dp4293
g68
(dp4294
g95
g96
ssg77
g4283
sg70
(lp4295
S':'
asbag63
(g84
g65
NtRp4296
(dp4297
g68
(dp4298
sg77
g4283
sg70
(lp4299
g63
(g64
g65
NtRp4300
(dp4301
g68
(dp4302
g76
I5
ssg77
g4296
sg70
(lp4303
g3612
asbasbasbag63
(g79
g65
NtRp4304
(dp4305
g68
(dp4306
sg77
g3555
sg70
(lp4307
g63
(g84
g65
NtRp4308
(dp4309
g68
(dp4310
g88
g89
ssg77
g4304
sg70
(lp4311
S'session_locked'
p4312
asbag63
(g84
g65
NtRp4313
(dp4314
g68
(dp4315
g95
g96
ssg77
g4304
sg70
(lp4316
S':'
asbag63
(g84
g65
NtRp4317
(dp4318
g68
(dp4319
sg77
g4304
sg70
(lp4320
g63
(g64
g65
NtRp4321
(dp4322
g68
(dp4323
g76
I5
ssg77
g4317
sg70
(lp4324
g2032
asbasbasbag63
(g79
g65
NtRp4325
(dp4326
g68
(dp4327
sg77
g3555
sg70
(lp4328
g63
(g84
g65
NtRp4329
(dp4330
g68
(dp4331
g88
g89
ssg77
g4325
sg70
(lp4332
S'session_new'
p4333
asbag63
(g84
g65
NtRp4334
(dp4335
g68
(dp4336
g95
g96
ssg77
g4325
sg70
(lp4337
S':'
asbag63
(g84
g65
NtRp4338
(dp4339
g68
(dp4340
sg77
g4325
sg70
(lp4341
g63
(g64
g65
NtRp4342
(dp4343
g68
(dp4344
g76
I5
ssg77
g4338
sg70
(lp4345
g106
asbasbasbag63
(g79
g65
NtRp4346
(dp4347
g68
(dp4348
sg77
g3555
sg70
(lp4349
g63
(g84
g65
NtRp4350
(dp4351
g68
(dp4352
g88
g89
ssg77
g4346
sg70
(lp4353
S'status'
p4354
asbag63
(g84
g65
NtRp4355
(dp4356
g68
(dp4357
g95
g96
ssg77
g4346
sg70
(lp4358
S':'
asbag63
(g84
g65
NtRp4359
(dp4360
g68
(dp4361
sg77
g4346
sg70
(lp4362
g63
(g64
g65
NtRp4363
(dp4364
g68
(dp4365
g76
I5
ssg77
g4359
sg70
(lp4366
S'200'
p4367
asbasbasbag63
(g79
g65
NtRp4368
(dp4369
g68
(dp4370
sg77
g3555
sg70
(lp4371
g63
(g84
g65
NtRp4372
(dp4373
g68
(dp4374
g88
g89
ssg77
g4368
sg70
(lp4375
S'subtitle'
p4376
asbag63
(g84
g65
NtRp4377
(dp4378
g68
(dp4379
g95
g96
ssg77
g4368
sg70
(lp4380
S':'
asbag63
(g84
g65
NtRp4381
(dp4382
g68
(dp4383
sg77
g4368
sg70
(lp4384
g63
(g64
g65
NtRp4385
(dp4386
g68
(dp4387
g76
I5
ssg77
g4381
sg70
(lp4388
S'powered by web2py'
p4389
asbasbasbag63
(g79
g65
NtRp4390
(dp4391
g68
(dp4392
sg77
g3555
sg70
(lp4393
g63
(g84
g65
NtRp4394
(dp4395
g68
(dp4396
g88
g89
ssg77
g4390
sg70
(lp4397
S'title'
p4398
asbag63
(g84
g65
NtRp4399
(dp4400
g68
(dp4401
g95
g96
ssg77
g4390
sg70
(lp4402
S':'
asbag63
(g84
g65
NtRp4403
(dp4404
g68
(dp4405
sg77
g4390
sg70
(lp4406
g63
(g64
g65
NtRp4407
(dp4408
g68
(dp4409
g76
I5
ssg77
g4403
sg70
(lp4410
S'Data Structures'
p4411
asbasbasbag63
(g79
g65
NtRp4412
(dp4413
g68
(dp4414
sg77
g3555
sg70
(lp4415
g63
(g84
g65
NtRp4416
(dp4417
g68
(dp4418
g88
g89
ssg77
g4412
sg70
(lp4419
g2696
asbag63
(g84
g65
NtRp4420
(dp4421
g68
(dp4422
g95
g96
ssg77
g4412
sg70
(lp4423
S':'
asbag63
(g84
g65
NtRp4424
(dp4425
g68
(dp4426
sg77
g4412
sg70
(lp4427
g63
(g64
g65
NtRp4428
(dp4429
g68
(dp4430
g76
I5
ssg77
g4424
sg70
(lp4431
g2709
asbasbasbag63
(g79
g65
NtRp4432
(dp4433
g68
(dp4434
sg77
g3555
sg70
(lp4435
g63
(g84
g65
NtRp4436
(dp4437
g68
(dp4438
g88
g89
ssg77
g4432
sg70
(lp4439
S'view'
p4440
asbag63
(g84
g65
NtRp4441
(dp4442
g68
(dp4443
g95
g96
ssg77
g4432
sg70
(lp4444
S':'
asbag63
(g84
g65
NtRp4445
(dp4446
g68
(dp4447
sg77
g4432
sg70
(lp4448
g63
(g64
g65
NtRp4449
(dp4450
g68
(dp4451
g76
I5
ssg77
g4445
sg70
(lp4452
S'build/builddoc.html'
p4453
asbasbasbasbasbsS'locals'
p4454
(dp4455
S'mode'
p4456
S'511'
p4457
sS'tail'
p4458
S"'eds'"
p4459
sS'head'
p4460
S"'/'"
p4461
sS'name'
p4462
S"'/eds'"
p4463
sssS'traceback'
p4464
S'Traceback (most recent call last):\n  File "/Users/bmiller/src/eds/gluon/restricted.py", line 204, in restricted\n    exec ccode in environment\n  File "/Users/bmiller/src/eds/applications/eds/controllers/build.py", line 11, in <module>\n  File "/Users/bmiller/src/eds/gluon/globals.py", line 172, in <lambda>\n    self._caller = lambda f: f()\n  File "/Users/bmiller/src/eds/applications/eds/controllers/build.py", line 7, in builddoc\n    support.build()\n  File "/Library/Python/2.7/site-packages/Sphinx-1.1.2-py2.7.egg/sphinx/websupport/__init__.py", line 121, in build\n    \'websupport\', status=self.status, warning=self.warning)\n  File "/Library/Python/2.7/site-packages/Sphinx-1.1.2-py2.7.egg/sphinx/application.py", line 134, in __init__\n    self._init_builder(buildername)\n  File "/Library/Python/2.7/site-packages/Sphinx-1.1.2-py2.7.egg/sphinx/application.py", line 194, in _init_builder\n    self.builder = builderclass(self)\n  File "/Library/Python/2.7/site-packages/Sphinx-1.1.2-py2.7.egg/sphinx/builders/__init__.py", line 45, in __init__\n    os.makedirs(self.doctreedir)\n  File "/System/Library/Frameworks/Python.framework/Versions/2.7/lib/python2.7/os.py", line 150, in makedirs\n    makedirs(head, mode)\n  File "/System/Library/Frameworks/Python.framework/Versions/2.7/lib/python2.7/os.py", line 157, in makedirs\n    mkdir(name, mode)\nOSError: [Errno 13] Permission denied: \'/eds\'\n'
p4465
s.